

Microchip MPLAB XC8 Assembler V2.40 build 20220703182018 
                                                                                               Wed Feb 22 01:02:07 2023

Microchip MPLAB XC8 C Compiler v2.40 (Free license) build 20220703182018 Og1 
     1                           	processor	16F887
     2                           	pagewidth 120
     3                           	opt	flic
     4                           	psect	nvCOMMON,global,class=COMMON,space=1,delta=1,noexec
     5                           	psect	cinit,global,class=CODE,merge=1,delta=2
     6                           	psect	bssCOMMON,global,class=COMMON,space=1,delta=1,noexec
     7                           	psect	bssBANK1,global,class=BANK1,space=1,delta=1,noexec
     8                           	psect	cstackBANK1,global,class=BANK1,space=1,delta=1,noexec
     9                           	psect	cstackCOMMON,global,class=COMMON,space=1,delta=1,noexec
    10                           	psect	cstackBANK0,global,class=BANK0,space=1,delta=1,noexec
    11                           	psect	maintext,global,class=CODE,split=1,delta=2
    12                           	psect	text1,local,class=CODE,merge=1,delta=2
    13                           	psect	text2,local,class=CODE,merge=1,delta=2
    14                           	psect	text3,local,class=CODE,merge=1,delta=2
    15                           	psect	text4,local,class=CODE,merge=1,delta=2,group=1
    16                           	psect	text5,local,class=CODE,merge=1,delta=2
    17                           	psect	text6,local,class=CODE,merge=1,delta=2
    18                           	psect	text7,local,class=CODE,merge=1,delta=2,group=1
    19                           	psect	text8,local,class=CODE,merge=1,delta=2,group=1
    20                           	psect	text9,local,class=CODE,merge=1,delta=2
    21                           	psect	text10,local,class=CODE,merge=1,delta=2
    22                           	psect	text11,local,class=CODE,merge=1,delta=2,group=1
    23                           	psect	text12,local,class=CODE,merge=1,delta=2,group=1
    24                           	psect	text13,local,class=CODE,merge=1,delta=2,group=1
    25                           	psect	text14,local,class=CODE,merge=1,delta=2,group=1
    26                           	psect	text15,local,class=CODE,merge=1,delta=2
    27                           	psect	intentry,global,class=CODE,delta=2
    28                           	psect	text16,local,class=CODE,merge=1,delta=2
    29                           	psect	text17,local,class=CODE,merge=1,delta=2
    30                           	psect	text18,local,class=CODE,merge=1,delta=2
    31                           	psect	text19,local,class=CODE,merge=1,delta=2
    32                           	psect	text20,local,class=CODE,merge=1,delta=2
    33                           	psect	text21,local,class=CODE,merge=1,delta=2
    34                           	psect	idloc,global,abs,ovrld,class=IDLOC,space=5,delta=2,noexec
    35                           	psect	config,global,abs,ovrld,class=CONFIG,space=4,delta=2,noexec
    36                           	dabs	1,0x7E,2
    37     0000                     
    38                           ; Version 2.40
    39                           ; Generated 17/11/2021 GMT
    40                           ; 
    41                           ; Copyright © 2021, Microchip Technology Inc. and its subsidiaries ("Microchip")
    42                           ; All rights reserved.
    43                           ; 
    44                           ; This software is developed by Microchip Technology Inc. and its subsidiaries ("Microch
      +                          ip").
    45                           ; 
    46                           ; Redistribution and use in source and binary forms, with or without modification, are
    47                           ; permitted provided that the following conditions are met:
    48                           ; 
    49                           ;     1. Redistributions of source code must retain the above copyright notice, this lis
      +                          t of
    50                           ;        conditions and the following disclaimer.
    51                           ; 
    52                           ;     2. Redistributions in binary form must reproduce the above copyright notice, this 
      +                          list
    53                           ;        of conditions and the following disclaimer in the documentation and/or other
    54                           ;        materials provided with the distribution. Publication is not required when
    55                           ;        this file is used in an embedded application.
    56                           ; 
    57                           ;     3. Microchip's name may not be used to endorse or promote products derived from th
      +                          is
    58                           ;        software without specific prior written permission.
    59                           ; 
    60                           ; THIS SOFTWARE IS PROVIDED BY MICROCHIP "AS IS" AND ANY EXPRESS OR IMPLIED WARRANTIES,
    61                           ; INCLUDING, BUT NOT LIMITED TO, THE IMPLIED WARRANTIES OF MERCHANTABILITY AND FITNESS F
      +                          OR
    62                           ; PURPOSE ARE DISCLAIMED.  IN NO EVENT SHALL MICROCHIP BE LIABLE FOR ANY DIRECT, INDIREC
      +                          T,
    63                           ; INCIDENTAL, SPECIAL, EXEMPLARY, OR CONSEQUENTIAL DAMAGES (INCLUDING BUT NOT LIMITED TO
    64                           ; PROCUREMENT OF SUBSTITUTE GOODS OR SERVICES; LOSS OF USE, DATA OR PROFITS; OR BUSINESS
    65                           ; INTERRUPTION) HOWSOEVER CAUSED AND ON ANY THEORY OF LIABILITY, WHETHER IN CONTRACT, ST
      +                          RICT
    66                           ; LIABILITY, OR TORT (INCLUDING NEGLIGENCE OR OTHERWISE) ARISING IN ANY WAY OUT OF THE U
      +                          SE OF
    67                           ; THIS SOFTWARE, EVEN IF ADVISED OF THE POSSIBILITY OF SUCH DAMAGE.
    68                           ; 
    69                           ; 
    70                           ; Code-generator required, PIC16F887 Definitions
    71                           ; 
    72                           ; SFR Addresses
    73     0000                     	;# 
    74     0001                     	;# 
    75     0002                     	;# 
    76     0003                     	;# 
    77     0004                     	;# 
    78     0005                     	;# 
    79     0006                     	;# 
    80     0007                     	;# 
    81     0008                     	;# 
    82     0009                     	;# 
    83     000A                     	;# 
    84     000B                     	;# 
    85     000C                     	;# 
    86     000D                     	;# 
    87     000E                     	;# 
    88     000E                     	;# 
    89     000F                     	;# 
    90     0010                     	;# 
    91     0011                     	;# 
    92     0012                     	;# 
    93     0013                     	;# 
    94     0014                     	;# 
    95     0015                     	;# 
    96     0015                     	;# 
    97     0016                     	;# 
    98     0017                     	;# 
    99     0018                     	;# 
   100     0019                     	;# 
   101     001A                     	;# 
   102     001B                     	;# 
   103     001B                     	;# 
   104     001C                     	;# 
   105     001D                     	;# 
   106     001E                     	;# 
   107     001F                     	;# 
   108     0081                     	;# 
   109     0085                     	;# 
   110     0086                     	;# 
   111     0087                     	;# 
   112     0088                     	;# 
   113     0089                     	;# 
   114     008C                     	;# 
   115     008D                     	;# 
   116     008E                     	;# 
   117     008F                     	;# 
   118     0090                     	;# 
   119     0091                     	;# 
   120     0092                     	;# 
   121     0093                     	;# 
   122     0093                     	;# 
   123     0093                     	;# 
   124     0094                     	;# 
   125     0095                     	;# 
   126     0096                     	;# 
   127     0097                     	;# 
   128     0098                     	;# 
   129     0099                     	;# 
   130     009A                     	;# 
   131     009B                     	;# 
   132     009C                     	;# 
   133     009D                     	;# 
   134     009E                     	;# 
   135     009F                     	;# 
   136     0105                     	;# 
   137     0107                     	;# 
   138     0108                     	;# 
   139     0109                     	;# 
   140     010C                     	;# 
   141     010C                     	;# 
   142     010D                     	;# 
   143     010E                     	;# 
   144     010F                     	;# 
   145     0185                     	;# 
   146     0187                     	;# 
   147     0188                     	;# 
   148     0189                     	;# 
   149     018C                     	;# 
   150     018D                     	;# 
   151     0000                     	;# 
   152     0001                     	;# 
   153     0002                     	;# 
   154     0003                     	;# 
   155     0004                     	;# 
   156     0005                     	;# 
   157     0006                     	;# 
   158     0007                     	;# 
   159     0008                     	;# 
   160     0009                     	;# 
   161     000A                     	;# 
   162     000B                     	;# 
   163     000C                     	;# 
   164     000D                     	;# 
   165     000E                     	;# 
   166     000E                     	;# 
   167     000F                     	;# 
   168     0010                     	;# 
   169     0011                     	;# 
   170     0012                     	;# 
   171     0013                     	;# 
   172     0014                     	;# 
   173     0015                     	;# 
   174     0015                     	;# 
   175     0016                     	;# 
   176     0017                     	;# 
   177     0018                     	;# 
   178     0019                     	;# 
   179     001A                     	;# 
   180     001B                     	;# 
   181     001B                     	;# 
   182     001C                     	;# 
   183     001D                     	;# 
   184     001E                     	;# 
   185     001F                     	;# 
   186     0081                     	;# 
   187     0085                     	;# 
   188     0086                     	;# 
   189     0087                     	;# 
   190     0088                     	;# 
   191     0089                     	;# 
   192     008C                     	;# 
   193     008D                     	;# 
   194     008E                     	;# 
   195     008F                     	;# 
   196     0090                     	;# 
   197     0091                     	;# 
   198     0092                     	;# 
   199     0093                     	;# 
   200     0093                     	;# 
   201     0093                     	;# 
   202     0094                     	;# 
   203     0095                     	;# 
   204     0096                     	;# 
   205     0097                     	;# 
   206     0098                     	;# 
   207     0099                     	;# 
   208     009A                     	;# 
   209     009B                     	;# 
   210     009C                     	;# 
   211     009D                     	;# 
   212     009E                     	;# 
   213     009F                     	;# 
   214     0105                     	;# 
   215     0107                     	;# 
   216     0108                     	;# 
   217     0109                     	;# 
   218     010C                     	;# 
   219     010C                     	;# 
   220     010D                     	;# 
   221     010E                     	;# 
   222     010F                     	;# 
   223     0185                     	;# 
   224     0187                     	;# 
   225     0188                     	;# 
   226     0189                     	;# 
   227     018C                     	;# 
   228     018D                     	;# 
   229     0000                     	;# 
   230     0001                     	;# 
   231     0002                     	;# 
   232     0003                     	;# 
   233     0004                     	;# 
   234     0005                     	;# 
   235     0006                     	;# 
   236     0007                     	;# 
   237     0008                     	;# 
   238     0009                     	;# 
   239     000A                     	;# 
   240     000B                     	;# 
   241     000C                     	;# 
   242     000D                     	;# 
   243     000E                     	;# 
   244     000E                     	;# 
   245     000F                     	;# 
   246     0010                     	;# 
   247     0011                     	;# 
   248     0012                     	;# 
   249     0013                     	;# 
   250     0014                     	;# 
   251     0015                     	;# 
   252     0015                     	;# 
   253     0016                     	;# 
   254     0017                     	;# 
   255     0018                     	;# 
   256     0019                     	;# 
   257     001A                     	;# 
   258     001B                     	;# 
   259     001B                     	;# 
   260     001C                     	;# 
   261     001D                     	;# 
   262     001E                     	;# 
   263     001F                     	;# 
   264     0081                     	;# 
   265     0085                     	;# 
   266     0086                     	;# 
   267     0087                     	;# 
   268     0088                     	;# 
   269     0089                     	;# 
   270     008C                     	;# 
   271     008D                     	;# 
   272     008E                     	;# 
   273     008F                     	;# 
   274     0090                     	;# 
   275     0091                     	;# 
   276     0092                     	;# 
   277     0093                     	;# 
   278     0093                     	;# 
   279     0093                     	;# 
   280     0094                     	;# 
   281     0095                     	;# 
   282     0096                     	;# 
   283     0097                     	;# 
   284     0098                     	;# 
   285     0099                     	;# 
   286     009A                     	;# 
   287     009B                     	;# 
   288     009C                     	;# 
   289     009D                     	;# 
   290     009E                     	;# 
   291     009F                     	;# 
   292     0105                     	;# 
   293     0107                     	;# 
   294     0108                     	;# 
   295     0109                     	;# 
   296     010C                     	;# 
   297     010C                     	;# 
   298     010D                     	;# 
   299     010E                     	;# 
   300     010F                     	;# 
   301     0185                     	;# 
   302     0187                     	;# 
   303     0188                     	;# 
   304     0189                     	;# 
   305     018C                     	;# 
   306     018D                     	;# 
   307     0000                     	;# 
   308     0001                     	;# 
   309     0002                     	;# 
   310     0003                     	;# 
   311     0004                     	;# 
   312     0005                     	;# 
   313     0006                     	;# 
   314     0007                     	;# 
   315     0008                     	;# 
   316     0009                     	;# 
   317     000A                     	;# 
   318     000B                     	;# 
   319     000C                     	;# 
   320     000D                     	;# 
   321     000E                     	;# 
   322     000E                     	;# 
   323     000F                     	;# 
   324     0010                     	;# 
   325     0011                     	;# 
   326     0012                     	;# 
   327     0013                     	;# 
   328     0014                     	;# 
   329     0015                     	;# 
   330     0015                     	;# 
   331     0016                     	;# 
   332     0017                     	;# 
   333     0018                     	;# 
   334     0019                     	;# 
   335     001A                     	;# 
   336     001B                     	;# 
   337     001B                     	;# 
   338     001C                     	;# 
   339     001D                     	;# 
   340     001E                     	;# 
   341     001F                     	;# 
   342     0081                     	;# 
   343     0085                     	;# 
   344     0086                     	;# 
   345     0087                     	;# 
   346     0088                     	;# 
   347     0089                     	;# 
   348     008C                     	;# 
   349     008D                     	;# 
   350     008E                     	;# 
   351     008F                     	;# 
   352     0090                     	;# 
   353     0091                     	;# 
   354     0092                     	;# 
   355     0093                     	;# 
   356     0093                     	;# 
   357     0093                     	;# 
   358     0094                     	;# 
   359     0095                     	;# 
   360     0096                     	;# 
   361     0097                     	;# 
   362     0098                     	;# 
   363     0099                     	;# 
   364     009A                     	;# 
   365     009B                     	;# 
   366     009C                     	;# 
   367     009D                     	;# 
   368     009E                     	;# 
   369     009F                     	;# 
   370     0105                     	;# 
   371     0107                     	;# 
   372     0108                     	;# 
   373     0109                     	;# 
   374     010C                     	;# 
   375     010C                     	;# 
   376     010D                     	;# 
   377     010E                     	;# 
   378     010F                     	;# 
   379     0185                     	;# 
   380     0187                     	;# 
   381     0188                     	;# 
   382     0189                     	;# 
   383     018C                     	;# 
   384     018D                     	;# 
   385                           
   386                           	psect	nvCOMMON
   387     007D                     __pnvCOMMON:
   388     007D                     _dis:
   389     007D                     	ds	1
   390     000E                     _TMR1L	set	14
   391     000F                     _TMR1H	set	15
   392     0010                     _T1CONbits	set	16
   393     0010                     _T1CON	set	16
   394     0008                     _PORTDbits	set	8
   395     0013                     _SSPBUF	set	19
   396     0014                     _SSPCONbits	set	20
   397     0014                     _SSPCON	set	20
   398     0008                     _PORTD	set	8
   399     0007                     _PORTC	set	7
   400     0006                     _PORTB	set	6
   401     0005                     _PORTA	set	5
   402     000C                     _PIR1bits	set	12
   403     0001                     _TMR0	set	1
   404     0005                     _PORTAbits	set	5
   405     000B                     _INTCONbits	set	11
   406     0088                     _TRISDbits	set	136
   407     0094                     _SSPSTATbits	set	148
   408     008C                     _PIE1bits	set	140
   409     0091                     _SSPCON2	set	145
   410     0093                     _SSPADD	set	147
   411     0094                     _SSPSTAT	set	148
   412     0087                     _TRISCbits	set	135
   413     0081                     _OPTION_REGbits	set	129
   414     0085                     _TRISAbits	set	133
   415     008F                     _OSCCONbits	set	143
   416     0085                     _TRISA	set	133
   417     04A0                     _BF	set	1184
   418     0189                     _ANSELH	set	393
   419     0188                     _ANSEL	set	392
   420                           
   421                           	psect	cinit
   422     000F                     start_initialization:	
   423                           ; #config settings
   424                           
   425     000F                     __initialization:
   426                           
   427                           ; Clear objects allocated to COMMON
   428     000F  01F9               	clrf	__pbssCOMMON& (0+127)
   429     0010  01FA               	clrf	(__pbssCOMMON+1)& (0+127)
   430     0011  01FB               	clrf	(__pbssCOMMON+2)& (0+127)
   431     0012  01FC               	clrf	(__pbssCOMMON+3)& (0+127)
   432                           
   433                           ; Clear objects allocated to BANK1
   434     0013  1683               	bsf	3,5	;RP0=1, select bank1
   435     0014  1303               	bcf	3,6	;RP1=0, select bank1
   436     0015  01B0               	clrf	__pbssBANK1& (0+127)
   437     0016  01B1               	clrf	(__pbssBANK1+1)& (0+127)
   438     0017  01B2               	clrf	(__pbssBANK1+2)& (0+127)
   439     0018  01B3               	clrf	(__pbssBANK1+3)& (0+127)
   440     0019  01B4               	clrf	(__pbssBANK1+4)& (0+127)
   441     001A  01B5               	clrf	(__pbssBANK1+5)& (0+127)
   442     001B  01B6               	clrf	(__pbssBANK1+6)& (0+127)
   443     001C  01B7               	clrf	(__pbssBANK1+7)& (0+127)
   444     001D                     end_of_initialization:	
   445                           ;End of C runtime variable initialization code
   446                           
   447     001D                     __end_of__initialization:
   448     001D  0183               	clrf	3
   449     001E  120A  118A  2E29   	ljmp	_main	;jump to C main() function
   450                           
   451                           	psect	bssCOMMON
   452     0079                     __pbssCOMMON:
   453     0079                     _cont_sr:
   454     0079                     	ds	2
   455     007B                     _enviado:
   456     007B                     	ds	1
   457     007C                     _recibido:
   458     007C                     	ds	1
   459                           
   460                           	psect	bssBANK1
   461     00B0                     __pbssBANK1:
   462     00B0                     _data_s:
   463     00B0                     	ds	8
   464                           
   465                           	psect	cstackBANK1
   466     00A0                     __pcstackBANK1:
   467     00A0                     HCSR04_Get_Distance@dis_hc:
   468                           
   469                           ; 4 bytes @ 0x0
   470     00A0                     	ds	4
   471     00A4                     _HCSR04_Get_Distance$1261:
   472                           
   473                           ; 4 bytes @ 0x4
   474     00A4                     	ds	4
   475     00A8                     HCSR04_Get_Distance@timer_high:
   476                           
   477                           ; 2 bytes @ 0x8
   478     00A8                     	ds	2
   479     00AA                     HCSR04_Get_Distance@timer_low:
   480                           
   481                           ; 2 bytes @ 0xA
   482     00AA                     	ds	2
   483     00AC                     main@distancia:
   484                           
   485                           ; 4 bytes @ 0xC
   486     00AC                     	ds	4
   487                           
   488                           	psect	cstackCOMMON
   489     0070                     __pcstackCOMMON:
   490     0070                     ?_setup:
   491     0070                     ?_HCSR04_Init:	
   492                           ; 1 bytes @ 0x0
   493                           
   494     0070                     ?_Servo_1_Write:	
   495                           ; 1 bytes @ 0x0
   496                           
   497     0070                     ?_Servo_2_Write:	
   498                           ; 1 bytes @ 0x0
   499                           
   500     0070                     ?_I2C_Error_Data:	
   501                           ; 1 bytes @ 0x0
   502                           
   503     0070                     ??_I2C_Error_Data:	
   504                           ; 1 bytes @ 0x0
   505                           
   506     0070                     ?_I2C_Read_Slave:	
   507                           ; 1 bytes @ 0x0
   508                           
   509     0070                     ??_I2C_Read_Slave:	
   510                           ; 1 bytes @ 0x0
   511                           
   512     0070                     ?_I2C_Write_Slave:	
   513                           ; 1 bytes @ 0x0
   514                           
   515     0070                     ??_I2C_Write_Slave:	
   516                           ; 1 bytes @ 0x0
   517                           
   518     0070                     ?_Servo_Init:	
   519                           ; 1 bytes @ 0x0
   520                           
   521     0070                     ?_I2C_Init_Slave:	
   522                           ; 1 bytes @ 0x0
   523                           
   524     0070                     ?_main:	
   525                           ; 1 bytes @ 0x0
   526                           
   527     0070                     ?_isr:	
   528                           ; 1 bytes @ 0x0
   529                           
   530     0070                     ?_I2C_Error_Read:	
   531                           ; 1 bytes @ 0x0
   532                           
   533     0070                     ?_I2C_Write_Mode:	
   534                           ; 2 bytes @ 0x0
   535                           
   536     0070                     ?_I2C_Read_Mode:	
   537                           ; 2 bytes @ 0x0
   538                           
   539     0070                     I2C_Read_Slave@dato_i2c:	
   540                           ; 2 bytes @ 0x0
   541                           
   542     0070                     I2C_Write_Slave@dato_i2c:	
   543                           ; 1 bytes @ 0x0
   544                           
   545                           
   546                           ; 1 bytes @ 0x0
   547     0070                     	ds	2
   548     0072                     ??_I2C_Error_Read:
   549     0072                     ??_I2C_Write_Mode:	
   550                           ; 1 bytes @ 0x2
   551                           
   552     0072                     ??_I2C_Read_Mode:	
   553                           ; 1 bytes @ 0x2
   554                           
   555                           
   556                           ; 1 bytes @ 0x2
   557     0072                     	ds	2
   558     0074                     _I2C_Error_Read$534:
   559     0074                     _I2C_Write_Mode$544:	
   560                           ; 1 bytes @ 0x4
   561                           
   562     0074                     _I2C_Read_Mode$546:	
   563                           ; 1 bytes @ 0x4
   564                           
   565                           
   566                           ; 1 bytes @ 0x4
   567     0074                     	ds	1
   568     0075                     ??_isr:
   569                           
   570                           ; 1 bytes @ 0x5
   571     0075                     	ds	4
   572                           
   573                           	psect	cstackBANK0
   574     0020                     __pcstackBANK0:
   575     0020                     ??_HCSR04_Init:
   576     0020                     ??_Servo_Init:	
   577                           ; 1 bytes @ 0x0
   578                           
   579     0020                     ??_I2C_Init_Slave:	
   580                           ; 1 bytes @ 0x0
   581                           
   582     0020                     ?__Umul8_16:	
   583                           ; 1 bytes @ 0x0
   584                           
   585     0020                     ?___wmul:	
   586                           ; 2 bytes @ 0x0
   587                           
   588     0020                     ?___xxtofl:	
   589                           ; 2 bytes @ 0x0
   590                           
   591     0020                     I2C_Init_Slave@add_slave:	
   592                           ; 4 bytes @ 0x0
   593                           
   594     0020                     __Umul8_16@multiplicand:	
   595                           ; 1 bytes @ 0x0
   596                           
   597     0020                     ___wmul@multiplier:	
   598                           ; 1 bytes @ 0x0
   599                           
   600     0020                     ___xxtofl@val:	
   601                           ; 2 bytes @ 0x0
   602                           
   603                           
   604                           ; 4 bytes @ 0x0
   605     0020                     	ds	1
   606     0021                     ??_setup:
   607                           
   608                           ; 1 bytes @ 0x1
   609     0021                     	ds	1
   610     0022                     ??__Umul8_16:
   611     0022                     ___wmul@multiplicand:	
   612                           ; 1 bytes @ 0x2
   613                           
   614                           
   615                           ; 2 bytes @ 0x2
   616     0022                     	ds	2
   617     0024                     ??___wmul:
   618     0024                     ??___xxtofl:	
   619                           ; 1 bytes @ 0x4
   620                           
   621     0024                     ___wmul@product:	
   622                           ; 1 bytes @ 0x4
   623                           
   624     0024                     __Umul8_16@product:	
   625                           ; 2 bytes @ 0x4
   626                           
   627                           
   628                           ; 2 bytes @ 0x4
   629     0024                     	ds	2
   630     0026                     ?___awdiv:
   631     0026                     ___awdiv@divisor:	
   632                           ; 2 bytes @ 0x6
   633                           
   634     0026                     __Umul8_16@word_mpld:	
   635                           ; 2 bytes @ 0x6
   636                           
   637                           
   638                           ; 2 bytes @ 0x6
   639     0026                     	ds	2
   640     0028                     __Umul8_16@multiplier:
   641     0028                     ___xxtofl@sign:	
   642                           ; 1 bytes @ 0x8
   643                           
   644     0028                     ___awdiv@dividend:	
   645                           ; 1 bytes @ 0x8
   646                           
   647                           
   648                           ; 2 bytes @ 0x8
   649     0028                     	ds	1
   650     0029                     ___xxtofl@exp:
   651                           
   652                           ; 1 bytes @ 0x9
   653     0029                     	ds	1
   654     002A                     ??___awdiv:
   655     002A                     ___xxtofl@arg:	
   656                           ; 1 bytes @ 0xA
   657                           
   658                           
   659                           ; 4 bytes @ 0xA
   660     002A                     	ds	1
   661     002B                     ___awdiv@counter:
   662                           
   663                           ; 1 bytes @ 0xB
   664     002B                     	ds	1
   665     002C                     ___awdiv@sign:
   666                           
   667                           ; 1 bytes @ 0xC
   668     002C                     	ds	1
   669     002D                     ___awdiv@quotient:
   670                           
   671                           ; 2 bytes @ 0xD
   672     002D                     	ds	1
   673     002E                     ?___flmul:
   674     002E                     ___flmul@b:	
   675                           ; 4 bytes @ 0xE
   676                           
   677                           
   678                           ; 4 bytes @ 0xE
   679     002E                     	ds	1
   680     002F                     ??_Servo_1_Write:
   681     002F                     ??_Servo_2_Write:	
   682                           ; 1 bytes @ 0xF
   683                           
   684                           
   685                           ; 1 bytes @ 0xF
   686     002F                     	ds	2
   687     0031                     Servo_1_Write@ang:
   688     0031                     Servo_2_Write@ang:	
   689                           ; 1 bytes @ 0x11
   690                           
   691                           
   692                           ; 1 bytes @ 0x11
   693     0031                     	ds	1
   694     0032                     ___flmul@a:
   695                           
   696                           ; 4 bytes @ 0x12
   697     0032                     	ds	4
   698     0036                     ??___flmul:
   699                           
   700                           ; 1 bytes @ 0x16
   701     0036                     	ds	5
   702     003B                     ___flmul@sign:
   703                           
   704                           ; 1 bytes @ 0x1B
   705     003B                     	ds	1
   706     003C                     ___flmul@grs:
   707                           
   708                           ; 4 bytes @ 0x1C
   709     003C                     	ds	4
   710     0040                     ___flmul@aexp:
   711                           
   712                           ; 1 bytes @ 0x20
   713     0040                     	ds	1
   714     0041                     ___flmul@bexp:
   715                           
   716                           ; 1 bytes @ 0x21
   717     0041                     	ds	1
   718     0042                     ___flmul@prod:
   719                           
   720                           ; 4 bytes @ 0x22
   721     0042                     	ds	4
   722     0046                     ___flmul@temp:
   723                           
   724                           ; 2 bytes @ 0x26
   725     0046                     	ds	2
   726     0048                     ?___fldiv:
   727     0048                     ___fldiv@a:	
   728                           ; 4 bytes @ 0x28
   729                           
   730                           
   731                           ; 4 bytes @ 0x28
   732     0048                     	ds	4
   733     004C                     ___fldiv@b:
   734                           
   735                           ; 4 bytes @ 0x2C
   736     004C                     	ds	4
   737     0050                     ??___fldiv:
   738                           
   739                           ; 1 bytes @ 0x30
   740     0050                     	ds	5
   741     0055                     ___fldiv@rem:
   742                           
   743                           ; 4 bytes @ 0x35
   744     0055                     	ds	4
   745     0059                     ___fldiv@sign:
   746                           
   747                           ; 1 bytes @ 0x39
   748     0059                     	ds	1
   749     005A                     ___fldiv@new_exp:
   750                           
   751                           ; 2 bytes @ 0x3A
   752     005A                     	ds	2
   753     005C                     ___fldiv@grs:
   754                           
   755                           ; 4 bytes @ 0x3C
   756     005C                     	ds	4
   757     0060                     ___fldiv@bexp:
   758                           
   759                           ; 1 bytes @ 0x40
   760     0060                     	ds	1
   761     0061                     ___fldiv@aexp:
   762                           
   763                           ; 1 bytes @ 0x41
   764     0061                     	ds	1
   765     0062                     ?_HCSR04_Get_Distance:
   766     0062                     ?___fltol:	
   767                           ; 4 bytes @ 0x42
   768                           
   769     0062                     ___fltol@f1:	
   770                           ; 4 bytes @ 0x42
   771                           
   772                           
   773                           ; 4 bytes @ 0x42
   774     0062                     	ds	4
   775     0066                     ??_HCSR04_Get_Distance:
   776     0066                     ??___fltol:	
   777                           ; 1 bytes @ 0x46
   778                           
   779                           
   780                           ; 1 bytes @ 0x46
   781     0066                     	ds	4
   782     006A                     ___fltol@sign1:
   783                           
   784                           ; 1 bytes @ 0x4A
   785     006A                     	ds	1
   786     006B                     ___fltol@exp1:
   787                           
   788                           ; 1 bytes @ 0x4B
   789     006B                     	ds	1
   790     006C                     ??_main:
   791                           
   792                           ; 1 bytes @ 0x4C
   793     006C                     	ds	3
   794                           
   795                           	psect	maintext
   796     0629                     __pmaintext:	
   797 ;;
   798 ;;Main: autosize = 0, tempsize = 3, incstack = 0, save=0
   799 ;;
   800 ;; *************** function _main *****************
   801 ;; Defined at:
   802 ;;		line 59 in file "main_slave2.c"
   803 ;; Parameters:    Size  Location     Type
   804 ;;		None
   805 ;; Auto vars:     Size  Location     Type
   806 ;;  distancia       4   12[BANK1 ] float 
   807 ;; Return value:  Size  Location     Type
   808 ;;                  1    wreg      void 
   809 ;; Registers used:
   810 ;;		wreg, status,2, status,0, btemp+1, pclath, cstack
   811 ;; Tracked objects:
   812 ;;		On entry : B00/0
   813 ;;		On exit  : 0/0
   814 ;;		Unchanged: 0/0
   815 ;; Data sizes:     COMMON   BANK0   BANK1   BANK3   BANK2
   816 ;;      Params:         0       0       0       0       0
   817 ;;      Locals:         0       0       4       0       0
   818 ;;      Temps:          0       3       0       0       0
   819 ;;      Totals:         0       3       4       0       0
   820 ;;Total ram usage:        7 bytes
   821 ;; Hardware stack levels required when called: 5
   822 ;; This function calls:
   823 ;;		_HCSR04_Get_Distance
   824 ;;		_HCSR04_Init
   825 ;;		_Servo_1_Write
   826 ;;		_Servo_2_Write
   827 ;;		___fldiv
   828 ;;		___flmul
   829 ;;		___fltol
   830 ;;		_setup
   831 ;; This function is called by:
   832 ;;		Startup code after reset
   833 ;; This function uses a non-reentrant model
   834 ;;
   835                           
   836     0629                     _main:	
   837                           ;psect for function _main
   838                           
   839     0629                     l2102:	
   840                           ;incstack = 0
   841                           ; Regs used in _main: [wreg+status,2+status,0+btemp+1+pclath+cstack]
   842                           
   843                           
   844                           ;main_slave2.c: 60:     setup();
   845     0629  120A  158A  2608  120A  118A  	fcall	_setup
   846                           
   847                           ;main_slave2.c: 61:     HCSR04_Init();
   848     062E  120A  158A  257E  120A  118A  	fcall	_HCSR04_Init
   849     0633                     l2104:
   850                           
   851                           ;main_slave2.c: 63:         float distancia = HCSR04_Get_Distance();
   852     0633  120A  118A  2539  120A  118A  	fcall	_HCSR04_Get_Distance
   853     0638  1283               	bcf	3,5	;RP0=0, select bank0
   854     0639  1303               	bcf	3,6	;RP1=0, select bank0
   855     063A  0865               	movf	?_HCSR04_Get_Distance+3,w
   856     063B  1683               	bsf	3,5	;RP0=1, select bank1
   857     063C  1303               	bcf	3,6	;RP1=0, select bank1
   858     063D  00AF               	movwf	(main@distancia+3)^(0+128)
   859     063E  1283               	bcf	3,5	;RP0=0, select bank0
   860     063F  1303               	bcf	3,6	;RP1=0, select bank0
   861     0640  0864               	movf	?_HCSR04_Get_Distance+2,w
   862     0641  1683               	bsf	3,5	;RP0=1, select bank1
   863     0642  1303               	bcf	3,6	;RP1=0, select bank1
   864     0643  00AE               	movwf	(main@distancia+2)^(0+128)
   865     0644  1283               	bcf	3,5	;RP0=0, select bank0
   866     0645  1303               	bcf	3,6	;RP1=0, select bank0
   867     0646  0863               	movf	?_HCSR04_Get_Distance+1,w
   868     0647  1683               	bsf	3,5	;RP0=1, select bank1
   869     0648  1303               	bcf	3,6	;RP1=0, select bank1
   870     0649  00AD               	movwf	(main@distancia+1)^(0+128)
   871     064A  1283               	bcf	3,5	;RP0=0, select bank0
   872     064B  1303               	bcf	3,6	;RP1=0, select bank0
   873     064C  0862               	movf	?_HCSR04_Get_Distance,w
   874     064D  1683               	bsf	3,5	;RP0=1, select bank1
   875     064E  1303               	bcf	3,6	;RP1=0, select bank1
   876     064F  00AC               	movwf	main@distancia^(0+128)
   877     0650                     l2106:
   878                           
   879                           ;main_slave2.c: 64:         dis = (distancia * 100) / 1;
   880     0650  082F               	movf	(main@distancia+3)^(0+128),w
   881     0651  1283               	bcf	3,5	;RP0=0, select bank0
   882     0652  1303               	bcf	3,6	;RP1=0, select bank0
   883     0653  00B5               	movwf	___flmul@a+3
   884     0654  1683               	bsf	3,5	;RP0=1, select bank1
   885     0655  1303               	bcf	3,6	;RP1=0, select bank1
   886     0656  082E               	movf	(main@distancia+2)^(0+128),w
   887     0657  1283               	bcf	3,5	;RP0=0, select bank0
   888     0658  1303               	bcf	3,6	;RP1=0, select bank0
   889     0659  00B4               	movwf	___flmul@a+2
   890     065A  1683               	bsf	3,5	;RP0=1, select bank1
   891     065B  1303               	bcf	3,6	;RP1=0, select bank1
   892     065C  082D               	movf	(main@distancia+1)^(0+128),w
   893     065D  1283               	bcf	3,5	;RP0=0, select bank0
   894     065E  1303               	bcf	3,6	;RP1=0, select bank0
   895     065F  00B3               	movwf	___flmul@a+1
   896     0660  1683               	bsf	3,5	;RP0=1, select bank1
   897     0661  1303               	bcf	3,6	;RP1=0, select bank1
   898     0662  082C               	movf	main@distancia^(0+128),w
   899     0663  1283               	bcf	3,5	;RP0=0, select bank0
   900     0664  1303               	bcf	3,6	;RP1=0, select bank0
   901     0665  00B2               	movwf	___flmul@a
   902     0666  3042               	movlw	66
   903     0667  00B1               	movwf	___flmul@b+3
   904     0668  30C8               	movlw	200
   905     0669  00B0               	movwf	___flmul@b+2
   906     066A  3000               	movlw	0
   907     066B  00AF               	movwf	___flmul@b+1
   908     066C  3000               	movlw	0
   909     066D  00AE               	movwf	___flmul@b
   910     066E  120A  118A  2021  120A  118A  	fcall	___flmul
   911     0673  1283               	bcf	3,5	;RP0=0, select bank0
   912     0674  1303               	bcf	3,6	;RP1=0, select bank0
   913     0675  0831               	movf	?___flmul+3,w
   914     0676  00CF               	movwf	___fldiv@b+3
   915     0677  0830               	movf	?___flmul+2,w
   916     0678  00CE               	movwf	___fldiv@b+2
   917     0679  082F               	movf	?___flmul+1,w
   918     067A  00CD               	movwf	___fldiv@b+1
   919     067B  082E               	movf	?___flmul,w
   920     067C  00CC               	movwf	___fldiv@b
   921     067D  303F               	movlw	63
   922     067E  00CB               	movwf	___fldiv@a+3
   923     067F  3080               	movlw	128
   924     0680  00CA               	movwf	___fldiv@a+2
   925     0681  3000               	movlw	0
   926     0682  00C9               	movwf	___fldiv@a+1
   927     0683  3000               	movlw	0
   928     0684  00C8               	movwf	___fldiv@a
   929     0685  120A  118A  2366  120A  118A  	fcall	___fldiv
   930     068A  1283               	bcf	3,5	;RP0=0, select bank0
   931     068B  1303               	bcf	3,6	;RP1=0, select bank0
   932     068C  084B               	movf	?___fldiv+3,w
   933     068D  00E5               	movwf	___fltol@f1+3
   934     068E  084A               	movf	?___fldiv+2,w
   935     068F  00E4               	movwf	___fltol@f1+2
   936     0690  0849               	movf	?___fldiv+1,w
   937     0691  00E3               	movwf	___fltol@f1+1
   938     0692  0848               	movf	?___fldiv,w
   939     0693  00E2               	movwf	___fltol@f1
   940     0694  120A  158A  2700  120A  118A  	fcall	___fltol
   941     0699  1283               	bcf	3,5	;RP0=0, select bank0
   942     069A  1303               	bcf	3,6	;RP1=0, select bank0
   943     069B  0862               	movf	?___fltol,w
   944     069C  00FD               	movwf	_dis
   945                           
   946                           ;main_slave2.c: 66:         Servo_1_Write(0);
   947     069D  3000               	movlw	0
   948     069E  120A  118A  27D3  120A  118A  	fcall	_Servo_1_Write
   949                           
   950                           ;main_slave2.c: 67:         Servo_2_Write(0);
   951     06A3  3000               	movlw	0
   952     06A4  120A  118A  27A9  120A  118A  	fcall	_Servo_2_Write
   953     06A9                     l2108:
   954                           
   955                           ;main_slave2.c: 68:         _delay((unsigned long)((500)*(8000000/4000.0)));
   956     06A9  3006               	movlw	6
   957     06AA  1283               	bcf	3,5	;RP0=0, select bank0
   958     06AB  1303               	bcf	3,6	;RP1=0, select bank0
   959     06AC  00EE               	movwf	??_main+2
   960     06AD  3013               	movlw	19
   961     06AE  00ED               	movwf	??_main+1
   962     06AF  30AD               	movlw	173
   963     06B0  00EC               	movwf	??_main
   964     06B1                     u2737:
   965     06B1  0BEC               	decfsz	??_main,f
   966     06B2  2EB1               	goto	u2737
   967     06B3  0BED               	decfsz	??_main+1,f
   968     06B4  2EB1               	goto	u2737
   969     06B5  0BEE               	decfsz	??_main+2,f
   970     06B6  2EB1               	goto	u2737
   971     06B7                     l2110:
   972                           
   973                           ;main_slave2.c: 70:         Servo_1_Write(90);
   974     06B7  305A               	movlw	90
   975     06B8  120A  118A  27D3  120A  118A  	fcall	_Servo_1_Write
   976     06BD                     l2112:
   977                           
   978                           ;main_slave2.c: 71:         Servo_2_Write(90);
   979     06BD  305A               	movlw	90
   980     06BE  120A  118A  27A9  120A  118A  	fcall	_Servo_2_Write
   981     06C3                     l2114:
   982                           
   983                           ;main_slave2.c: 72:         _delay((unsigned long)((500)*(8000000/4000.0)));
   984     06C3  3006               	movlw	6
   985     06C4  1283               	bcf	3,5	;RP0=0, select bank0
   986     06C5  1303               	bcf	3,6	;RP1=0, select bank0
   987     06C6  00EE               	movwf	??_main+2
   988     06C7  3013               	movlw	19
   989     06C8  00ED               	movwf	??_main+1
   990     06C9  30AD               	movlw	173
   991     06CA  00EC               	movwf	??_main
   992     06CB                     u2747:
   993     06CB  0BEC               	decfsz	??_main,f
   994     06CC  2ECB               	goto	u2747
   995     06CD  0BED               	decfsz	??_main+1,f
   996     06CE  2ECB               	goto	u2747
   997     06CF  0BEE               	decfsz	??_main+2,f
   998     06D0  2ECB               	goto	u2747
   999                           
  1000                           ;main_slave2.c: 74:         Servo_1_Write(180);
  1001     06D1  30B4               	movlw	180
  1002     06D2  120A  118A  27D3  120A  118A  	fcall	_Servo_1_Write
  1003                           
  1004                           ;main_slave2.c: 75:         Servo_2_Write(180);
  1005     06D7  30B4               	movlw	180
  1006     06D8  120A  118A  27A9  120A  118A  	fcall	_Servo_2_Write
  1007     06DD                     l2116:
  1008                           
  1009                           ;main_slave2.c: 76:         _delay((unsigned long)((500)*(8000000/4000.0)));
  1010     06DD  3006               	movlw	6
  1011     06DE  1283               	bcf	3,5	;RP0=0, select bank0
  1012     06DF  1303               	bcf	3,6	;RP1=0, select bank0
  1013     06E0  00EE               	movwf	??_main+2
  1014     06E1  3013               	movlw	19
  1015     06E2  00ED               	movwf	??_main+1
  1016     06E3  30AD               	movlw	173
  1017     06E4  00EC               	movwf	??_main
  1018     06E5                     u2757:
  1019     06E5  0BEC               	decfsz	??_main,f
  1020     06E6  2EE5               	goto	u2757
  1021     06E7  0BED               	decfsz	??_main+1,f
  1022     06E8  2EE5               	goto	u2757
  1023     06E9  0BEE               	decfsz	??_main+2,f
  1024     06EA  2EE5               	goto	u2757
  1025     06EB  2E33               	goto	l2104
  1026     06EC  120A  118A  280C   	ljmp	start
  1027     06EF                     __end_of_main:
  1028                           
  1029                           	psect	text1
  1030     0E08                     __ptext1:	
  1031 ;; *************** function _setup *****************
  1032 ;; Defined at:
  1033 ;;		line 114 in file "main_slave2.c"
  1034 ;; Parameters:    Size  Location     Type
  1035 ;;		None
  1036 ;; Auto vars:     Size  Location     Type
  1037 ;;		None
  1038 ;; Return value:  Size  Location     Type
  1039 ;;                  1    wreg      void 
  1040 ;; Registers used:
  1041 ;;		wreg, status,2, status,0, pclath, cstack
  1042 ;; Tracked objects:
  1043 ;;		On entry : 0/0
  1044 ;;		On exit  : 0/0
  1045 ;;		Unchanged: 0/0
  1046 ;; Data sizes:     COMMON   BANK0   BANK1   BANK3   BANK2
  1047 ;;      Params:         0       0       0       0       0
  1048 ;;      Locals:         0       0       0       0       0
  1049 ;;      Temps:          0       0       0       0       0
  1050 ;;      Totals:         0       0       0       0       0
  1051 ;;Total ram usage:        0 bytes
  1052 ;; Hardware stack levels used: 1
  1053 ;; Hardware stack levels required when called: 3
  1054 ;; This function calls:
  1055 ;;		_I2C_Init_Slave
  1056 ;;		_Servo_Init
  1057 ;; This function is called by:
  1058 ;;		_main
  1059 ;; This function uses a non-reentrant model
  1060 ;;
  1061                           
  1062     0E08                     _setup:	
  1063                           ;psect for function _setup
  1064                           
  1065     0E08                     l1890:	
  1066                           ;incstack = 0
  1067                           ; Regs used in _setup: [wreg+status,2+status,0+pclath+cstack]
  1068                           
  1069                           
  1070                           ;main_slave2.c: 115:     ANSEL = 0;
  1071     0E08  1683               	bsf	3,5	;RP0=1, select bank3
  1072     0E09  1703               	bsf	3,6	;RP1=1, select bank3
  1073     0E0A  0188               	clrf	8	;volatile
  1074                           
  1075                           ;main_slave2.c: 116:     ANSELH = 0;
  1076     0E0B  0189               	clrf	9	;volatile
  1077                           
  1078                           ;main_slave2.c: 118:     TRISA = 0;
  1079     0E0C  1683               	bsf	3,5	;RP0=1, select bank1
  1080     0E0D  1303               	bcf	3,6	;RP1=0, select bank1
  1081     0E0E  0185               	clrf	5	;volatile
  1082                           
  1083                           ;main_slave2.c: 120:     PORTA = 0;
  1084     0E0F  1283               	bcf	3,5	;RP0=0, select bank0
  1085     0E10  1303               	bcf	3,6	;RP1=0, select bank0
  1086     0E11  0185               	clrf	5	;volatile
  1087                           
  1088                           ;main_slave2.c: 121:     PORTB = 0;
  1089     0E12  0186               	clrf	6	;volatile
  1090                           
  1091                           ;main_slave2.c: 122:     PORTC = 0;
  1092     0E13  0187               	clrf	7	;volatile
  1093                           
  1094                           ;main_slave2.c: 123:     PORTD = 0;
  1095     0E14  0188               	clrf	8	;volatile
  1096     0E15                     l1892:
  1097                           
  1098                           ;main_slave2.c: 125:     OSCCONbits.IRCF2 = 1;
  1099     0E15  1683               	bsf	3,5	;RP0=1, select bank1
  1100     0E16  1303               	bcf	3,6	;RP1=0, select bank1
  1101     0E17  170F               	bsf	15,6	;volatile
  1102     0E18                     l1894:
  1103                           
  1104                           ;main_slave2.c: 126:     OSCCONbits.IRCF1 = 1;
  1105     0E18  168F               	bsf	15,5	;volatile
  1106     0E19                     l1896:
  1107                           
  1108                           ;main_slave2.c: 127:     OSCCONbits.IRCF0 = 1;
  1109     0E19  160F               	bsf	15,4	;volatile
  1110     0E1A                     l1898:
  1111                           
  1112                           ;main_slave2.c: 129:     OSCCONbits.SCS = 1;
  1113     0E1A  140F               	bsf	15,0	;volatile
  1114     0E1B                     l1900:
  1115                           
  1116                           ;main_slave2.c: 130:     Servo_Init();
  1117     0E1B  120A  158A  25ED  120A  158A  	fcall	_Servo_Init
  1118     0E20                     l1902:
  1119                           
  1120                           ;main_slave2.c: 131:     I2C_Init_Slave(0x40);
  1121     0E20  3040               	movlw	64
  1122     0E21  120A  158A  2627  120A  158A  	fcall	_I2C_Init_Slave
  1123     0E26                     l116:
  1124     0E26  0008               	return
  1125     0E27                     __end_of_setup:
  1126                           
  1127                           	psect	text2
  1128     0DED                     __ptext2:	
  1129 ;; *************** function _Servo_Init *****************
  1130 ;; Defined at:
  1131 ;;		line 134 in file "main_slave2.c"
  1132 ;; Parameters:    Size  Location     Type
  1133 ;;		None
  1134 ;; Auto vars:     Size  Location     Type
  1135 ;;		None
  1136 ;; Return value:  Size  Location     Type
  1137 ;;                  1    wreg      void 
  1138 ;; Registers used:
  1139 ;;		wreg
  1140 ;; Tracked objects:
  1141 ;;		On entry : 0/0
  1142 ;;		On exit  : 0/0
  1143 ;;		Unchanged: 0/0
  1144 ;; Data sizes:     COMMON   BANK0   BANK1   BANK3   BANK2
  1145 ;;      Params:         0       0       0       0       0
  1146 ;;      Locals:         0       0       0       0       0
  1147 ;;      Temps:          0       0       0       0       0
  1148 ;;      Totals:         0       0       0       0       0
  1149 ;;Total ram usage:        0 bytes
  1150 ;; Hardware stack levels used: 1
  1151 ;; Hardware stack levels required when called: 2
  1152 ;; This function calls:
  1153 ;;		Nothing
  1154 ;; This function is called by:
  1155 ;;		_setup
  1156 ;; This function uses a non-reentrant model
  1157 ;;
  1158                           
  1159     0DED                     _Servo_Init:	
  1160                           ;psect for function _Servo_Init
  1161                           
  1162     0DED                     l1490:	
  1163                           ;incstack = 0
  1164                           ; Regs used in _Servo_Init: [wreg]
  1165                           
  1166                           
  1167                           ;main_slave2.c: 136:     TRISAbits.TRISA0 = 0;
  1168     0DED  1683               	bsf	3,5	;RP0=1, select bank1
  1169     0DEE  1303               	bcf	3,6	;RP1=0, select bank1
  1170     0DEF  1005               	bcf	5,0	;volatile
  1171                           
  1172                           ;main_slave2.c: 137:     PORTAbits.RA0 = 0;
  1173     0DF0  1283               	bcf	3,5	;RP0=0, select bank0
  1174     0DF1  1303               	bcf	3,6	;RP1=0, select bank0
  1175     0DF2  1005               	bcf	5,0	;volatile
  1176                           
  1177                           ;main_slave2.c: 141:     TRISAbits.TRISA1 = 0;
  1178     0DF3  1683               	bsf	3,5	;RP0=1, select bank1
  1179     0DF4  1303               	bcf	3,6	;RP1=0, select bank1
  1180     0DF5  1085               	bcf	5,1	;volatile
  1181                           
  1182                           ;main_slave2.c: 142:     PORTAbits.RA1 = 0;
  1183     0DF6  1283               	bcf	3,5	;RP0=0, select bank0
  1184     0DF7  1303               	bcf	3,6	;RP1=0, select bank0
  1185     0DF8  1085               	bcf	5,1	;volatile
  1186                           
  1187                           ;main_slave2.c: 145:     INTCONbits.TMR0IE = 1;
  1188     0DF9  168B               	bsf	11,5	;volatile
  1189                           
  1190                           ;main_slave2.c: 146:     INTCONbits.TMR0IF = 0;
  1191     0DFA  110B               	bcf	11,2	;volatile
  1192                           
  1193                           ;main_slave2.c: 148:     OPTION_REGbits.T0CS = 0;
  1194     0DFB  1683               	bsf	3,5	;RP0=1, select bank1
  1195     0DFC  1303               	bcf	3,6	;RP1=0, select bank1
  1196     0DFD  1281               	bcf	1,5	;volatile
  1197                           
  1198                           ;main_slave2.c: 149:     OPTION_REGbits.T0SE = 1;
  1199     0DFE  1601               	bsf	1,4	;volatile
  1200                           
  1201                           ;main_slave2.c: 150:     OPTION_REGbits.PSA = 0;
  1202     0DFF  1181               	bcf	1,3	;volatile
  1203                           
  1204                           ;main_slave2.c: 151:     OPTION_REGbits.PS2 = 0;
  1205     0E00  1101               	bcf	1,2	;volatile
  1206                           
  1207                           ;main_slave2.c: 152:     OPTION_REGbits.PS1 = 0;
  1208     0E01  1081               	bcf	1,1	;volatile
  1209                           
  1210                           ;main_slave2.c: 153:     OPTION_REGbits.PS0 = 0;
  1211     0E02  1001               	bcf	1,0	;volatile
  1212     0E03                     l1492:
  1213                           
  1214                           ;main_slave2.c: 155:     TMR0 = 250;
  1215     0E03  30FA               	movlw	250
  1216     0E04  1283               	bcf	3,5	;RP0=0, select bank0
  1217     0E05  1303               	bcf	3,6	;RP1=0, select bank0
  1218     0E06  0081               	movwf	1	;volatile
  1219     0E07                     l119:
  1220     0E07  0008               	return
  1221     0E08                     __end_of_Servo_Init:
  1222                           
  1223                           	psect	text3
  1224     0E27                     __ptext3:	
  1225 ;; *************** function _I2C_Init_Slave *****************
  1226 ;; Defined at:
  1227 ;;		line 83 in file "i2c.c"
  1228 ;; Parameters:    Size  Location     Type
  1229 ;;  add_slave       1    wreg     unsigned char 
  1230 ;; Auto vars:     Size  Location     Type
  1231 ;;  add_slave       1    0[BANK0 ] unsigned char 
  1232 ;; Return value:  Size  Location     Type
  1233 ;;                  1    wreg      void 
  1234 ;; Registers used:
  1235 ;;		wreg
  1236 ;; Tracked objects:
  1237 ;;		On entry : 0/0
  1238 ;;		On exit  : 0/0
  1239 ;;		Unchanged: 0/0
  1240 ;; Data sizes:     COMMON   BANK0   BANK1   BANK3   BANK2
  1241 ;;      Params:         0       0       0       0       0
  1242 ;;      Locals:         0       1       0       0       0
  1243 ;;      Temps:          0       0       0       0       0
  1244 ;;      Totals:         0       1       0       0       0
  1245 ;;Total ram usage:        1 bytes
  1246 ;; Hardware stack levels used: 1
  1247 ;; Hardware stack levels required when called: 2
  1248 ;; This function calls:
  1249 ;;		Nothing
  1250 ;; This function is called by:
  1251 ;;		_setup
  1252 ;; This function uses a non-reentrant model
  1253 ;;
  1254                           
  1255     0E27                     _I2C_Init_Slave:	
  1256                           ;psect for function _I2C_Init_Slave
  1257                           
  1258                           
  1259                           ;incstack = 0
  1260                           ; Regs used in _I2C_Init_Slave: [wreg]
  1261                           ;I2C_Init_Slave@add_slave stored from wreg
  1262     0E27  1283               	bcf	3,5	;RP0=0, select bank0
  1263     0E28  1303               	bcf	3,6	;RP1=0, select bank0
  1264     0E29  00A0               	movwf	I2C_Init_Slave@add_slave
  1265     0E2A                     l1494:
  1266                           
  1267                           ;i2c.c: 83: void I2C_Init_Slave(unsigned char add_slave);i2c.c: 84: {;i2c.c: 85:     TRI
      +                          SCbits.TRISC3 = 1;
  1268     0E2A  1683               	bsf	3,5	;RP0=1, select bank1
  1269     0E2B  1303               	bcf	3,6	;RP1=0, select bank1
  1270     0E2C  1587               	bsf	7,3	;volatile
  1271                           
  1272                           ;i2c.c: 86:     TRISCbits.TRISC4 = 1;
  1273     0E2D  1607               	bsf	7,4	;volatile
  1274     0E2E                     l1496:
  1275                           
  1276                           ;i2c.c: 87:     SSPSTAT = 0x80;
  1277     0E2E  3080               	movlw	128
  1278     0E2F  0094               	movwf	20	;volatile
  1279                           
  1280                           ;i2c.c: 88:     SSPADD = add_slave;
  1281     0E30  1283               	bcf	3,5	;RP0=0, select bank0
  1282     0E31  1303               	bcf	3,6	;RP1=0, select bank0
  1283     0E32  0820               	movf	I2C_Init_Slave@add_slave,w
  1284     0E33  1683               	bsf	3,5	;RP0=1, select bank1
  1285     0E34  1303               	bcf	3,6	;RP1=0, select bank1
  1286     0E35  0093               	movwf	19	;volatile
  1287                           
  1288                           ;i2c.c: 89:     SSPCON = 0x36;
  1289     0E36  3036               	movlw	54
  1290     0E37  1283               	bcf	3,5	;RP0=0, select bank0
  1291     0E38  1303               	bcf	3,6	;RP1=0, select bank0
  1292     0E39  0094               	movwf	20	;volatile
  1293                           
  1294                           ;i2c.c: 90:     SSPCON2 = 0x01;
  1295     0E3A  3001               	movlw	1
  1296     0E3B  1683               	bsf	3,5	;RP0=1, select bank1
  1297     0E3C  1303               	bcf	3,6	;RP1=0, select bank1
  1298     0E3D  0091               	movwf	17	;volatile
  1299     0E3E                     l1498:
  1300                           
  1301                           ;i2c.c: 91:     INTCONbits.GIE = 1;
  1302     0E3E  178B               	bsf	11,7	;volatile
  1303     0E3F                     l1500:
  1304                           
  1305                           ;i2c.c: 92:     INTCONbits.PEIE = 1;
  1306     0E3F  170B               	bsf	11,6	;volatile
  1307     0E40                     l1502:
  1308                           
  1309                           ;i2c.c: 93:     PIR1bits.SSPIF = 0;
  1310     0E40  1283               	bcf	3,5	;RP0=0, select bank0
  1311     0E41  1303               	bcf	3,6	;RP1=0, select bank0
  1312     0E42  118C               	bcf	12,3	;volatile
  1313     0E43                     l1504:
  1314                           
  1315                           ;i2c.c: 94:     PIE1bits.SSPIE = 1;
  1316     0E43  1683               	bsf	3,5	;RP0=1, select bank1
  1317     0E44  1303               	bcf	3,6	;RP1=0, select bank1
  1318     0E45  158C               	bsf	12,3	;volatile
  1319     0E46                     l152:
  1320     0E46  0008               	return
  1321     0E47                     __end_of_I2C_Init_Slave:
  1322                           
  1323                           	psect	text4
  1324     0F00                     __ptext4:	
  1325 ;; *************** function ___fltol *****************
  1326 ;; Defined at:
  1327 ;;		line 43 in file "E:\Program Files\Microchip\xc8\v2.40\pic\sources\c90\common\fltol.c"
  1328 ;; Parameters:    Size  Location     Type
  1329 ;;  f1              4   66[BANK0 ] void 
  1330 ;; Auto vars:     Size  Location     Type
  1331 ;;  exp1            1   75[BANK0 ] unsigned char 
  1332 ;;  sign1           1   74[BANK0 ] unsigned char 
  1333 ;; Return value:  Size  Location     Type
  1334 ;;                  4   66[BANK0 ] long 
  1335 ;; Registers used:
  1336 ;;		wreg, status,2, status,0
  1337 ;; Tracked objects:
  1338 ;;		On entry : 0/0
  1339 ;;		On exit  : 0/0
  1340 ;;		Unchanged: 0/0
  1341 ;; Data sizes:     COMMON   BANK0   BANK1   BANK3   BANK2
  1342 ;;      Params:         0       4       0       0       0
  1343 ;;      Locals:         0       2       0       0       0
  1344 ;;      Temps:          0       4       0       0       0
  1345 ;;      Totals:         0      10       0       0       0
  1346 ;;Total ram usage:       10 bytes
  1347 ;; Hardware stack levels used: 1
  1348 ;; Hardware stack levels required when called: 2
  1349 ;; This function calls:
  1350 ;;		Nothing
  1351 ;; This function is called by:
  1352 ;;		_main
  1353 ;;		_floattostr
  1354 ;; This function uses a non-reentrant model
  1355 ;;
  1356                           
  1357     0F00                     ___fltol:	
  1358                           ;psect for function ___fltol
  1359                           
  1360     0F00                     l1992:	
  1361                           ;incstack = 0
  1362                           ; Regs used in ___fltol: [wreg+status,2+status,0]
  1363                           
  1364     0F00  1003               	clrc
  1365     0F01  1283               	bcf	3,5	;RP0=0, select bank0
  1366     0F02  1303               	bcf	3,6	;RP1=0, select bank0
  1367     0F03  0D64               	rlf	___fltol@f1+2,w
  1368     0F04  0D65               	rlf	___fltol@f1+3,w
  1369     0F05  00EB               	movwf	___fltol@exp1
  1370     0F06  086B               	movf	___fltol@exp1,w
  1371     0F07  1D03               	btfss	3,2
  1372     0F08  2F0A               	goto	u2441
  1373     0F09  2F0B               	goto	u2440
  1374     0F0A                     u2441:
  1375     0F0A  2F14               	goto	l1998
  1376     0F0B                     u2440:
  1377     0F0B                     l1994:
  1378     0F0B  3000               	movlw	0
  1379     0F0C  00E5               	movwf	?___fltol+3
  1380     0F0D  3000               	movlw	0
  1381     0F0E  00E4               	movwf	?___fltol+2
  1382     0F0F  3000               	movlw	0
  1383     0F10  00E3               	movwf	?___fltol+1
  1384     0F11  3000               	movlw	0
  1385     0F12  00E2               	movwf	?___fltol
  1386     0F13  2F77               	goto	l480
  1387     0F14                     l1998:
  1388     0F14  0862               	movf	___fltol@f1,w
  1389     0F15  00E6               	movwf	??___fltol
  1390     0F16  0863               	movf	___fltol@f1+1,w
  1391     0F17  00E7               	movwf	??___fltol+1
  1392     0F18  0864               	movf	___fltol@f1+2,w
  1393     0F19  00E8               	movwf	??___fltol+2
  1394     0F1A  0865               	movf	___fltol@f1+3,w
  1395     0F1B  00E9               	movwf	??___fltol+3
  1396     0F1C  301F               	movlw	31
  1397     0F1D                     u2455:
  1398     0F1D  1003               	clrc
  1399     0F1E  0CE9               	rrf	??___fltol+3,f
  1400     0F1F  0CE8               	rrf	??___fltol+2,f
  1401     0F20  0CE7               	rrf	??___fltol+1,f
  1402     0F21  0CE6               	rrf	??___fltol,f
  1403     0F22                     u2450:
  1404     0F22  3EFF               	addlw	-1
  1405     0F23  1D03               	skipz
  1406     0F24  2F1D               	goto	u2455
  1407     0F25  0866               	movf	??___fltol,w
  1408     0F26  00EA               	movwf	___fltol@sign1
  1409     0F27                     l2000:
  1410     0F27  17E4               	bsf	___fltol@f1+2,7
  1411     0F28                     l2002:
  1412     0F28  30FF               	movlw	255
  1413     0F29  05E2               	andwf	___fltol@f1,f
  1414     0F2A  30FF               	movlw	255
  1415     0F2B  05E3               	andwf	___fltol@f1+1,f
  1416     0F2C  30FF               	movlw	255
  1417     0F2D  05E4               	andwf	___fltol@f1+2,f
  1418     0F2E  3000               	movlw	0
  1419     0F2F  05E5               	andwf	___fltol@f1+3,f
  1420     0F30                     l2004:
  1421     0F30  3096               	movlw	150
  1422     0F31  02EB               	subwf	___fltol@exp1,f
  1423     0F32                     l2006:
  1424     0F32  1FEB               	btfss	___fltol@exp1,7
  1425     0F33  2F35               	goto	u2461
  1426     0F34  2F36               	goto	u2460
  1427     0F35                     u2461:
  1428     0F35  2F50               	goto	l2016
  1429     0F36                     u2460:
  1430     0F36                     l2008:
  1431     0F36  086B               	movf	___fltol@exp1,w
  1432     0F37  3A80               	xorlw	128
  1433     0F38  3E97               	addlw	151
  1434     0F39  1803               	skipnc
  1435     0F3A  2F3C               	goto	u2471
  1436     0F3B  2F3D               	goto	u2470
  1437     0F3C                     u2471:
  1438     0F3C  2F3E               	goto	l2014
  1439     0F3D                     u2470:
  1440     0F3D  2F0B               	goto	l1994
  1441     0F3E                     l2014:
  1442     0F3E  3001               	movlw	1
  1443     0F3F                     u2485:
  1444     0F3F  1003               	clrc
  1445     0F40  0CE5               	rrf	___fltol@f1+3,f
  1446     0F41  0CE4               	rrf	___fltol@f1+2,f
  1447     0F42  0CE3               	rrf	___fltol@f1+1,f
  1448     0F43  0CE2               	rrf	___fltol@f1,f
  1449     0F44  3EFF               	addlw	-1
  1450     0F45  1D03               	skipz
  1451     0F46  2F3F               	goto	u2485
  1452     0F47  3001               	movlw	1
  1453     0F48  00E6               	movwf	??___fltol
  1454     0F49  0866               	movf	??___fltol,w
  1455     0F4A  07EB               	addwf	___fltol@exp1,f
  1456     0F4B  1D03               	btfss	3,2
  1457     0F4C  2F4E               	goto	u2491
  1458     0F4D  2F4F               	goto	u2490
  1459     0F4E                     u2491:
  1460     0F4E  2F3E               	goto	l2014
  1461     0F4F                     u2490:
  1462     0F4F  2F67               	goto	l2024
  1463     0F50                     l2016:
  1464     0F50  3020               	movlw	32
  1465     0F51  026B               	subwf	___fltol@exp1,w
  1466     0F52  1C03               	skipc
  1467     0F53  2F55               	goto	u2501
  1468     0F54  2F56               	goto	u2500
  1469     0F55                     u2501:
  1470     0F55  2F62               	goto	l487
  1471     0F56                     u2500:
  1472     0F56  2F0B               	goto	l1994
  1473     0F57                     l2022:
  1474     0F57  3001               	movlw	1
  1475     0F58  00E6               	movwf	??___fltol
  1476     0F59                     u2515:
  1477     0F59  1003               	clrc
  1478     0F5A  0DE2               	rlf	___fltol@f1,f
  1479     0F5B  0DE3               	rlf	___fltol@f1+1,f
  1480     0F5C  0DE4               	rlf	___fltol@f1+2,f
  1481     0F5D  0DE5               	rlf	___fltol@f1+3,f
  1482     0F5E  0BE6               	decfsz	??___fltol,f
  1483     0F5F  2F59               	goto	u2515
  1484     0F60  3001               	movlw	1
  1485     0F61  02EB               	subwf	___fltol@exp1,f
  1486     0F62                     l487:
  1487     0F62  086B               	movf	___fltol@exp1,w
  1488     0F63  1D03               	btfss	3,2
  1489     0F64  2F66               	goto	u2521
  1490     0F65  2F67               	goto	u2520
  1491     0F66                     u2521:
  1492     0F66  2F57               	goto	l2022
  1493     0F67                     u2520:
  1494     0F67                     l2024:
  1495     0F67  086A               	movf	___fltol@sign1,w
  1496     0F68  1903               	btfsc	3,2
  1497     0F69  2F6B               	goto	u2531
  1498     0F6A  2F6C               	goto	u2530
  1499     0F6B                     u2531:
  1500     0F6B  2F77               	goto	l490
  1501     0F6C                     u2530:
  1502     0F6C                     l2026:
  1503     0F6C  09E2               	comf	___fltol@f1,f
  1504     0F6D  09E3               	comf	___fltol@f1+1,f
  1505     0F6E  09E4               	comf	___fltol@f1+2,f
  1506     0F6F  09E5               	comf	___fltol@f1+3,f
  1507     0F70  0AE2               	incf	___fltol@f1,f
  1508     0F71  1903               	skipnz
  1509     0F72  0AE3               	incf	___fltol@f1+1,f
  1510     0F73  1903               	skipnz
  1511     0F74  0AE4               	incf	___fltol@f1+2,f
  1512     0F75  1903               	skipnz
  1513     0F76  0AE5               	incf	___fltol@f1+3,f
  1514     0F77                     l490:
  1515     0F77                     l480:
  1516     0F77  0008               	return
  1517     0F78                     __end_of___fltol:
  1518                           
  1519                           	psect	text5
  1520     07A9                     __ptext5:	
  1521 ;; *************** function _Servo_2_Write *****************
  1522 ;; Defined at:
  1523 ;;		line 166 in file "main_slave2.c"
  1524 ;; Parameters:    Size  Location     Type
  1525 ;;  ang             1    wreg     unsigned char 
  1526 ;; Auto vars:     Size  Location     Type
  1527 ;;  ang             1   17[BANK0 ] unsigned char 
  1528 ;; Return value:  Size  Location     Type
  1529 ;;                  1    wreg      void 
  1530 ;; Registers used:
  1531 ;;		wreg, status,2, status,0, pclath, cstack
  1532 ;; Tracked objects:
  1533 ;;		On entry : 0/0
  1534 ;;		On exit  : 0/0
  1535 ;;		Unchanged: 0/0
  1536 ;; Data sizes:     COMMON   BANK0   BANK1   BANK3   BANK2
  1537 ;;      Params:         0       0       0       0       0
  1538 ;;      Locals:         0       1       0       0       0
  1539 ;;      Temps:          0       2       0       0       0
  1540 ;;      Totals:         0       3       0       0       0
  1541 ;;Total ram usage:        3 bytes
  1542 ;; Hardware stack levels used: 1
  1543 ;; Hardware stack levels required when called: 3
  1544 ;; This function calls:
  1545 ;;		___awdiv
  1546 ;;		___wmul
  1547 ;; This function is called by:
  1548 ;;		_main
  1549 ;; This function uses a non-reentrant model
  1550 ;;
  1551                           
  1552     07A9                     _Servo_2_Write:	
  1553                           ;psect for function _Servo_2_Write
  1554                           
  1555                           
  1556                           ;incstack = 0
  1557                           ; Regs used in _Servo_2_Write: [wreg+status,2+status,0+pclath+cstack]
  1558                           ;Servo_2_Write@ang stored from wreg
  1559     07A9  1283               	bcf	3,5	;RP0=0, select bank0
  1560     07AA  1303               	bcf	3,6	;RP1=0, select bank0
  1561     07AB  00B1               	movwf	Servo_2_Write@ang
  1562     07AC                     l1928:
  1563                           
  1564                           ;main_slave2.c: 166: void Servo_2_Write(unsigned char ang);main_slave2.c: 167: {;main_sl
      +                          ave2.c: 168:     data_s[1] = (ang-0)*(60 -14)/(180-0)+14;
  1565     07AC  30B4               	movlw	180
  1566     07AD  00A6               	movwf	___awdiv@divisor
  1567     07AE  3000               	movlw	0
  1568     07AF  00A7               	movwf	___awdiv@divisor+1
  1569     07B0  0831               	movf	Servo_2_Write@ang,w
  1570     07B1  00AF               	movwf	??_Servo_2_Write
  1571     07B2  01B0               	clrf	??_Servo_2_Write+1
  1572     07B3  082F               	movf	??_Servo_2_Write,w
  1573     07B4  00A0               	movwf	___wmul@multiplier
  1574     07B5  0830               	movf	??_Servo_2_Write+1,w
  1575     07B6  00A1               	movwf	___wmul@multiplier+1
  1576     07B7  302E               	movlw	46
  1577     07B8  00A2               	movwf	___wmul@multiplicand
  1578     07B9  3000               	movlw	0
  1579     07BA  00A3               	movwf	___wmul@multiplicand+1
  1580     07BB  120A  158A  2647  120A  118A  	fcall	___wmul
  1581     07C0  1283               	bcf	3,5	;RP0=0, select bank0
  1582     07C1  1303               	bcf	3,6	;RP1=0, select bank0
  1583     07C2  0821               	movf	?___wmul+1,w
  1584     07C3  00A9               	movwf	___awdiv@dividend+1
  1585     07C4  0820               	movf	?___wmul,w
  1586     07C5  00A8               	movwf	___awdiv@dividend
  1587     07C6  120A  158A  2697  120A  118A  	fcall	___awdiv
  1588     07CB  1283               	bcf	3,5	;RP0=0, select bank0
  1589     07CC  1303               	bcf	3,6	;RP1=0, select bank0
  1590     07CD  0826               	movf	?___awdiv,w
  1591     07CE  3E0E               	addlw	14
  1592     07CF  1683               	bsf	3,5	;RP0=1, select bank1
  1593     07D0  1303               	bcf	3,6	;RP1=0, select bank1
  1594     07D1  00B1               	movwf	(_data_s^(0+128)+1)
  1595     07D2                     l125:
  1596     07D2  0008               	return
  1597     07D3                     __end_of_Servo_2_Write:
  1598                           
  1599                           	psect	text6
  1600     07D3                     __ptext6:	
  1601 ;; *************** function _Servo_1_Write *****************
  1602 ;; Defined at:
  1603 ;;		line 159 in file "main_slave2.c"
  1604 ;; Parameters:    Size  Location     Type
  1605 ;;  ang             1    wreg     unsigned char 
  1606 ;; Auto vars:     Size  Location     Type
  1607 ;;  ang             1   17[BANK0 ] unsigned char 
  1608 ;; Return value:  Size  Location     Type
  1609 ;;                  1    wreg      void 
  1610 ;; Registers used:
  1611 ;;		wreg, status,2, status,0, pclath, cstack
  1612 ;; Tracked objects:
  1613 ;;		On entry : 0/0
  1614 ;;		On exit  : 0/0
  1615 ;;		Unchanged: 0/0
  1616 ;; Data sizes:     COMMON   BANK0   BANK1   BANK3   BANK2
  1617 ;;      Params:         0       0       0       0       0
  1618 ;;      Locals:         0       1       0       0       0
  1619 ;;      Temps:          0       2       0       0       0
  1620 ;;      Totals:         0       3       0       0       0
  1621 ;;Total ram usage:        3 bytes
  1622 ;; Hardware stack levels used: 1
  1623 ;; Hardware stack levels required when called: 3
  1624 ;; This function calls:
  1625 ;;		___awdiv
  1626 ;;		___wmul
  1627 ;; This function is called by:
  1628 ;;		_main
  1629 ;; This function uses a non-reentrant model
  1630 ;;
  1631                           
  1632     07D3                     _Servo_1_Write:	
  1633                           ;psect for function _Servo_1_Write
  1634                           
  1635                           
  1636                           ;incstack = 0
  1637                           ; Regs used in _Servo_1_Write: [wreg+status,2+status,0+pclath+cstack]
  1638                           ;Servo_1_Write@ang stored from wreg
  1639     07D3  1283               	bcf	3,5	;RP0=0, select bank0
  1640     07D4  1303               	bcf	3,6	;RP1=0, select bank0
  1641     07D5  00B1               	movwf	Servo_1_Write@ang
  1642     07D6                     l1926:
  1643                           
  1644                           ;main_slave2.c: 159: void Servo_1_Write(unsigned char ang);main_slave2.c: 160: {;main_sl
      +                          ave2.c: 161:     data_s[0] = (ang-0)*(60 -14)/(180-0)+14;
  1645     07D6  30B4               	movlw	180
  1646     07D7  00A6               	movwf	___awdiv@divisor
  1647     07D8  3000               	movlw	0
  1648     07D9  00A7               	movwf	___awdiv@divisor+1
  1649     07DA  0831               	movf	Servo_1_Write@ang,w
  1650     07DB  00AF               	movwf	??_Servo_1_Write
  1651     07DC  01B0               	clrf	??_Servo_1_Write+1
  1652     07DD  082F               	movf	??_Servo_1_Write,w
  1653     07DE  00A0               	movwf	___wmul@multiplier
  1654     07DF  0830               	movf	??_Servo_1_Write+1,w
  1655     07E0  00A1               	movwf	___wmul@multiplier+1
  1656     07E1  302E               	movlw	46
  1657     07E2  00A2               	movwf	___wmul@multiplicand
  1658     07E3  3000               	movlw	0
  1659     07E4  00A3               	movwf	___wmul@multiplicand+1
  1660     07E5  120A  158A  2647  120A  118A  	fcall	___wmul
  1661     07EA  1283               	bcf	3,5	;RP0=0, select bank0
  1662     07EB  1303               	bcf	3,6	;RP1=0, select bank0
  1663     07EC  0821               	movf	?___wmul+1,w
  1664     07ED  00A9               	movwf	___awdiv@dividend+1
  1665     07EE  0820               	movf	?___wmul,w
  1666     07EF  00A8               	movwf	___awdiv@dividend
  1667     07F0  120A  158A  2697  120A  118A  	fcall	___awdiv
  1668     07F5  1283               	bcf	3,5	;RP0=0, select bank0
  1669     07F6  1303               	bcf	3,6	;RP1=0, select bank0
  1670     07F7  0826               	movf	?___awdiv,w
  1671     07F8  3E0E               	addlw	14
  1672     07F9  1683               	bsf	3,5	;RP0=1, select bank1
  1673     07FA  1303               	bcf	3,6	;RP1=0, select bank1
  1674     07FB  00B0               	movwf	_data_s^(0+128)
  1675     07FC                     l122:
  1676     07FC  0008               	return
  1677     07FD                     __end_of_Servo_1_Write:
  1678                           
  1679                           	psect	text7
  1680     0E47                     __ptext7:	
  1681 ;; *************** function ___wmul *****************
  1682 ;; Defined at:
  1683 ;;		line 15 in file "E:\Program Files\Microchip\xc8\v2.40\pic\sources\c90\common\Umul16.c"
  1684 ;; Parameters:    Size  Location     Type
  1685 ;;  multiplier      2    0[BANK0 ] unsigned int 
  1686 ;;  multiplicand    2    2[BANK0 ] unsigned int 
  1687 ;; Auto vars:     Size  Location     Type
  1688 ;;  product         2    4[BANK0 ] unsigned int 
  1689 ;; Return value:  Size  Location     Type
  1690 ;;                  2    0[BANK0 ] unsigned int 
  1691 ;; Registers used:
  1692 ;;		wreg, status,2, status,0
  1693 ;; Tracked objects:
  1694 ;;		On entry : 0/0
  1695 ;;		On exit  : 0/0
  1696 ;;		Unchanged: 0/0
  1697 ;; Data sizes:     COMMON   BANK0   BANK1   BANK3   BANK2
  1698 ;;      Params:         0       4       0       0       0
  1699 ;;      Locals:         0       2       0       0       0
  1700 ;;      Temps:          0       0       0       0       0
  1701 ;;      Totals:         0       6       0       0       0
  1702 ;;Total ram usage:        6 bytes
  1703 ;; Hardware stack levels used: 1
  1704 ;; Hardware stack levels required when called: 2
  1705 ;; This function calls:
  1706 ;;		Nothing
  1707 ;; This function is called by:
  1708 ;;		_Servo_1_Write
  1709 ;;		_Servo_2_Write
  1710 ;; This function uses a non-reentrant model
  1711 ;;
  1712                           
  1713     0E47                     ___wmul:	
  1714                           ;psect for function ___wmul
  1715                           
  1716     0E47                     l1506:	
  1717                           ;incstack = 0
  1718                           ; Regs used in ___wmul: [wreg+status,2+status,0]
  1719                           
  1720     0E47  1283               	bcf	3,5	;RP0=0, select bank0
  1721     0E48  1303               	bcf	3,6	;RP1=0, select bank0
  1722     0E49  01A4               	clrf	___wmul@product
  1723     0E4A  01A5               	clrf	___wmul@product+1
  1724     0E4B                     l1508:
  1725     0E4B  1C20               	btfss	___wmul@multiplier,0
  1726     0E4C  2E4E               	goto	u1401
  1727     0E4D  2E4F               	goto	u1400
  1728     0E4E                     u1401:
  1729     0E4E  2E55               	goto	l294
  1730     0E4F                     u1400:
  1731     0E4F                     l1510:
  1732     0E4F  0822               	movf	___wmul@multiplicand,w
  1733     0E50  07A4               	addwf	___wmul@product,f
  1734     0E51  1803               	skipnc
  1735     0E52  0AA5               	incf	___wmul@product+1,f
  1736     0E53  0823               	movf	___wmul@multiplicand+1,w
  1737     0E54  07A5               	addwf	___wmul@product+1,f
  1738     0E55                     l294:
  1739     0E55  3001               	movlw	1
  1740     0E56                     u1415:
  1741     0E56  1003               	clrc
  1742     0E57  0DA2               	rlf	___wmul@multiplicand,f
  1743     0E58  0DA3               	rlf	___wmul@multiplicand+1,f
  1744     0E59  3EFF               	addlw	-1
  1745     0E5A  1D03               	skipz
  1746     0E5B  2E56               	goto	u1415
  1747     0E5C                     l1512:
  1748     0E5C  3001               	movlw	1
  1749     0E5D                     u1425:
  1750     0E5D  1003               	clrc
  1751     0E5E  0CA1               	rrf	___wmul@multiplier+1,f
  1752     0E5F  0CA0               	rrf	___wmul@multiplier,f
  1753     0E60  3EFF               	addlw	-1
  1754     0E61  1D03               	skipz
  1755     0E62  2E5D               	goto	u1425
  1756     0E63                     l1514:
  1757     0E63  0820               	movf	___wmul@multiplier,w
  1758     0E64  0421               	iorwf	___wmul@multiplier+1,w
  1759     0E65  1D03               	btfss	3,2
  1760     0E66  2E68               	goto	u1431
  1761     0E67  2E69               	goto	u1430
  1762     0E68                     u1431:
  1763     0E68  2E4B               	goto	l1508
  1764     0E69                     u1430:
  1765     0E69                     l1516:
  1766     0E69  0825               	movf	___wmul@product+1,w
  1767     0E6A  00A1               	movwf	?___wmul+1
  1768     0E6B  0824               	movf	___wmul@product,w
  1769     0E6C  00A0               	movwf	?___wmul
  1770     0E6D                     l296:
  1771     0E6D  0008               	return
  1772     0E6E                     __end_of___wmul:
  1773                           
  1774                           	psect	text8
  1775     0E97                     __ptext8:	
  1776 ;; *************** function ___awdiv *****************
  1777 ;; Defined at:
  1778 ;;		line 5 in file "E:\Program Files\Microchip\xc8\v2.40\pic\sources\c90\common\awdiv.c"
  1779 ;; Parameters:    Size  Location     Type
  1780 ;;  divisor         2    6[BANK0 ] int 
  1781 ;;  dividend        2    8[BANK0 ] int 
  1782 ;; Auto vars:     Size  Location     Type
  1783 ;;  quotient        2   13[BANK0 ] int 
  1784 ;;  sign            1   12[BANK0 ] unsigned char 
  1785 ;;  counter         1   11[BANK0 ] unsigned char 
  1786 ;; Return value:  Size  Location     Type
  1787 ;;                  2    6[BANK0 ] int 
  1788 ;; Registers used:
  1789 ;;		wreg, status,2, status,0
  1790 ;; Tracked objects:
  1791 ;;		On entry : 0/0
  1792 ;;		On exit  : 0/0
  1793 ;;		Unchanged: 0/0
  1794 ;; Data sizes:     COMMON   BANK0   BANK1   BANK3   BANK2
  1795 ;;      Params:         0       4       0       0       0
  1796 ;;      Locals:         0       4       0       0       0
  1797 ;;      Temps:          0       1       0       0       0
  1798 ;;      Totals:         0       9       0       0       0
  1799 ;;Total ram usage:        9 bytes
  1800 ;; Hardware stack levels used: 1
  1801 ;; Hardware stack levels required when called: 2
  1802 ;; This function calls:
  1803 ;;		Nothing
  1804 ;; This function is called by:
  1805 ;;		_Servo_1_Write
  1806 ;;		_Servo_2_Write
  1807 ;; This function uses a non-reentrant model
  1808 ;;
  1809                           
  1810     0E97                     ___awdiv:	
  1811                           ;psect for function ___awdiv
  1812                           
  1813     0E97                     l1520:	
  1814                           ;incstack = 0
  1815                           ; Regs used in ___awdiv: [wreg+status,2+status,0]
  1816                           
  1817     0E97  1283               	bcf	3,5	;RP0=0, select bank0
  1818     0E98  1303               	bcf	3,6	;RP1=0, select bank0
  1819     0E99  01AC               	clrf	___awdiv@sign
  1820     0E9A                     l1522:
  1821     0E9A  1FA7               	btfss	___awdiv@divisor+1,7
  1822     0E9B  2E9D               	goto	u1441
  1823     0E9C  2E9E               	goto	u1440
  1824     0E9D                     u1441:
  1825     0E9D  2EA5               	goto	l1528
  1826     0E9E                     u1440:
  1827     0E9E                     l1524:
  1828     0E9E  09A6               	comf	___awdiv@divisor,f
  1829     0E9F  09A7               	comf	___awdiv@divisor+1,f
  1830     0EA0  0AA6               	incf	___awdiv@divisor,f
  1831     0EA1  1903               	skipnz
  1832     0EA2  0AA7               	incf	___awdiv@divisor+1,f
  1833     0EA3                     l1526:
  1834     0EA3  01AC               	clrf	___awdiv@sign
  1835     0EA4  0AAC               	incf	___awdiv@sign,f
  1836     0EA5                     l1528:
  1837     0EA5  1FA9               	btfss	___awdiv@dividend+1,7
  1838     0EA6  2EA8               	goto	u1451
  1839     0EA7  2EA9               	goto	u1450
  1840     0EA8                     u1451:
  1841     0EA8  2EB2               	goto	l1534
  1842     0EA9                     u1450:
  1843     0EA9                     l1530:
  1844     0EA9  09A8               	comf	___awdiv@dividend,f
  1845     0EAA  09A9               	comf	___awdiv@dividend+1,f
  1846     0EAB  0AA8               	incf	___awdiv@dividend,f
  1847     0EAC  1903               	skipnz
  1848     0EAD  0AA9               	incf	___awdiv@dividend+1,f
  1849     0EAE                     l1532:
  1850     0EAE  3001               	movlw	1
  1851     0EAF  00AA               	movwf	??___awdiv
  1852     0EB0  082A               	movf	??___awdiv,w
  1853     0EB1  06AC               	xorwf	___awdiv@sign,f
  1854     0EB2                     l1534:
  1855     0EB2  01AD               	clrf	___awdiv@quotient
  1856     0EB3  01AE               	clrf	___awdiv@quotient+1
  1857     0EB4                     l1536:
  1858     0EB4  0826               	movf	___awdiv@divisor,w
  1859     0EB5  0427               	iorwf	___awdiv@divisor+1,w
  1860     0EB6  1903               	btfsc	3,2
  1861     0EB7  2EB9               	goto	u1461
  1862     0EB8  2EBA               	goto	u1460
  1863     0EB9                     u1461:
  1864     0EB9  2EF1               	goto	l1556
  1865     0EBA                     u1460:
  1866     0EBA                     l1538:
  1867     0EBA  01AB               	clrf	___awdiv@counter
  1868     0EBB  0AAB               	incf	___awdiv@counter,f
  1869     0EBC  2EC8               	goto	l1544
  1870     0EBD                     l1540:
  1871     0EBD  3001               	movlw	1
  1872     0EBE                     u1475:
  1873     0EBE  1003               	clrc
  1874     0EBF  0DA6               	rlf	___awdiv@divisor,f
  1875     0EC0  0DA7               	rlf	___awdiv@divisor+1,f
  1876     0EC1  3EFF               	addlw	-1
  1877     0EC2  1D03               	skipz
  1878     0EC3  2EBE               	goto	u1475
  1879     0EC4                     l1542:
  1880     0EC4  3001               	movlw	1
  1881     0EC5  00AA               	movwf	??___awdiv
  1882     0EC6  082A               	movf	??___awdiv,w
  1883     0EC7  07AB               	addwf	___awdiv@counter,f
  1884     0EC8                     l1544:
  1885     0EC8  1FA7               	btfss	___awdiv@divisor+1,7
  1886     0EC9  2ECB               	goto	u1481
  1887     0ECA  2ECC               	goto	u1480
  1888     0ECB                     u1481:
  1889     0ECB  2EBD               	goto	l1540
  1890     0ECC                     u1480:
  1891     0ECC                     l1546:
  1892     0ECC  3001               	movlw	1
  1893     0ECD                     u1495:
  1894     0ECD  1003               	clrc
  1895     0ECE  0DAD               	rlf	___awdiv@quotient,f
  1896     0ECF  0DAE               	rlf	___awdiv@quotient+1,f
  1897     0ED0  3EFF               	addlw	-1
  1898     0ED1  1D03               	skipz
  1899     0ED2  2ECD               	goto	u1495
  1900     0ED3  0827               	movf	___awdiv@divisor+1,w
  1901     0ED4  0229               	subwf	___awdiv@dividend+1,w
  1902     0ED5  1D03               	skipz
  1903     0ED6  2ED9               	goto	u1505
  1904     0ED7  0826               	movf	___awdiv@divisor,w
  1905     0ED8  0228               	subwf	___awdiv@dividend,w
  1906     0ED9                     u1505:
  1907     0ED9  1C03               	skipc
  1908     0EDA  2EDC               	goto	u1501
  1909     0EDB  2EDD               	goto	u1500
  1910     0EDC                     u1501:
  1911     0EDC  2EE4               	goto	l1552
  1912     0EDD                     u1500:
  1913     0EDD                     l1548:
  1914     0EDD  0826               	movf	___awdiv@divisor,w
  1915     0EDE  02A8               	subwf	___awdiv@dividend,f
  1916     0EDF  0827               	movf	___awdiv@divisor+1,w
  1917     0EE0  1C03               	skipc
  1918     0EE1  03A9               	decf	___awdiv@dividend+1,f
  1919     0EE2  02A9               	subwf	___awdiv@dividend+1,f
  1920     0EE3                     l1550:
  1921     0EE3  142D               	bsf	___awdiv@quotient,0
  1922     0EE4                     l1552:
  1923     0EE4  3001               	movlw	1
  1924     0EE5                     u1515:
  1925     0EE5  1003               	clrc
  1926     0EE6  0CA7               	rrf	___awdiv@divisor+1,f
  1927     0EE7  0CA6               	rrf	___awdiv@divisor,f
  1928     0EE8  3EFF               	addlw	-1
  1929     0EE9  1D03               	skipz
  1930     0EEA  2EE5               	goto	u1515
  1931     0EEB                     l1554:
  1932     0EEB  3001               	movlw	1
  1933     0EEC  02AB               	subwf	___awdiv@counter,f
  1934     0EED  1D03               	btfss	3,2
  1935     0EEE  2EF0               	goto	u1521
  1936     0EEF  2EF1               	goto	u1520
  1937     0EF0                     u1521:
  1938     0EF0  2ECC               	goto	l1546
  1939     0EF1                     u1520:
  1940     0EF1                     l1556:
  1941     0EF1  082C               	movf	___awdiv@sign,w
  1942     0EF2  1903               	btfsc	3,2
  1943     0EF3  2EF5               	goto	u1531
  1944     0EF4  2EF6               	goto	u1530
  1945     0EF5                     u1531:
  1946     0EF5  2EFB               	goto	l1560
  1947     0EF6                     u1530:
  1948     0EF6                     l1558:
  1949     0EF6  09AD               	comf	___awdiv@quotient,f
  1950     0EF7  09AE               	comf	___awdiv@quotient+1,f
  1951     0EF8  0AAD               	incf	___awdiv@quotient,f
  1952     0EF9  1903               	skipnz
  1953     0EFA  0AAE               	incf	___awdiv@quotient+1,f
  1954     0EFB                     l1560:
  1955     0EFB  082E               	movf	___awdiv@quotient+1,w
  1956     0EFC  00A7               	movwf	?___awdiv+1
  1957     0EFD  082D               	movf	___awdiv@quotient,w
  1958     0EFE  00A6               	movwf	?___awdiv
  1959     0EFF                     l447:
  1960     0EFF  0008               	return
  1961     0F00                     __end_of___awdiv:
  1962                           
  1963                           	psect	text9
  1964     0D7E                     __ptext9:	
  1965 ;; *************** function _HCSR04_Init *****************
  1966 ;; Defined at:
  1967 ;;		line 11 in file "hc_sr04.c"
  1968 ;; Parameters:    Size  Location     Type
  1969 ;;		None
  1970 ;; Auto vars:     Size  Location     Type
  1971 ;;		None
  1972 ;; Return value:  Size  Location     Type
  1973 ;;                  1    wreg      void 
  1974 ;; Registers used:
  1975 ;;		wreg
  1976 ;; Tracked objects:
  1977 ;;		On entry : 0/0
  1978 ;;		On exit  : 0/0
  1979 ;;		Unchanged: 0/0
  1980 ;; Data sizes:     COMMON   BANK0   BANK1   BANK3   BANK2
  1981 ;;      Params:         0       0       0       0       0
  1982 ;;      Locals:         0       0       0       0       0
  1983 ;;      Temps:          0       0       0       0       0
  1984 ;;      Totals:         0       0       0       0       0
  1985 ;;Total ram usage:        0 bytes
  1986 ;; Hardware stack levels used: 1
  1987 ;; Hardware stack levels required when called: 2
  1988 ;; This function calls:
  1989 ;;		Nothing
  1990 ;; This function is called by:
  1991 ;;		_main
  1992 ;; This function uses a non-reentrant model
  1993 ;;
  1994                           
  1995     0D7E                     _HCSR04_Init:	
  1996                           ;psect for function _HCSR04_Init
  1997                           
  1998     0D7E                     l1904:	
  1999                           ;incstack = 0
  2000                           ; Regs used in _HCSR04_Init: [wreg]
  2001                           
  2002                           
  2003                           ;hc_sr04.c: 13:     TRISDbits.TRISD3 = 0;
  2004     0D7E  1683               	bsf	3,5	;RP0=1, select bank1
  2005     0D7F  1303               	bcf	3,6	;RP1=0, select bank1
  2006     0D80  1188               	bcf	8,3	;volatile
  2007                           
  2008                           ;hc_sr04.c: 14:     TRISDbits.TRISD2 = 1;
  2009     0D81  1508               	bsf	8,2	;volatile
  2010                           
  2011                           ;hc_sr04.c: 15:     PORTDbits.RD3 = 0;
  2012     0D82  1283               	bcf	3,5	;RP0=0, select bank0
  2013     0D83  1303               	bcf	3,6	;RP1=0, select bank0
  2014     0D84  1188               	bcf	8,3	;volatile
  2015     0D85                     l1906:
  2016                           
  2017                           ;hc_sr04.c: 16:     T1CON = 0xF8;
  2018     0D85  30F8               	movlw	248
  2019     0D86  0090               	movwf	16	;volatile
  2020     0D87                     l1908:
  2021                           
  2022                           ;hc_sr04.c: 17:     T1CONbits.TMR1ON = 1;
  2023     0D87  1410               	bsf	16,0	;volatile
  2024     0D88                     l199:
  2025     0D88  0008               	return
  2026     0D89                     __end_of_HCSR04_Init:
  2027                           
  2028                           	psect	text10
  2029     0539                     __ptext10:	
  2030 ;; *************** function _HCSR04_Get_Distance *****************
  2031 ;; Defined at:
  2032 ;;		line 20 in file "hc_sr04.c"
  2033 ;; Parameters:    Size  Location     Type
  2034 ;;		None
  2035 ;; Auto vars:     Size  Location     Type
  2036 ;;  dis_hc          4    0[BANK1 ] float 
  2037 ;;  timer_low       2   10[BANK1 ] unsigned int 
  2038 ;;  timer_high      2    8[BANK1 ] unsigned int 
  2039 ;; Return value:  Size  Location     Type
  2040 ;;                  4   66[BANK0 ] float 
  2041 ;; Registers used:
  2042 ;;		wreg, status,2, status,0, btemp+1, pclath, cstack
  2043 ;; Tracked objects:
  2044 ;;		On entry : 0/0
  2045 ;;		On exit  : 0/0
  2046 ;;		Unchanged: 0/0
  2047 ;; Data sizes:     COMMON   BANK0   BANK1   BANK3   BANK2
  2048 ;;      Params:         0       4       0       0       0
  2049 ;;      Locals:         0       0      12       0       0
  2050 ;;      Temps:          0       2       0       0       0
  2051 ;;      Totals:         0       6      12       0       0
  2052 ;;Total ram usage:       18 bytes
  2053 ;; Hardware stack levels used: 1
  2054 ;; Hardware stack levels required when called: 4
  2055 ;; This function calls:
  2056 ;;		___fldiv
  2057 ;;		___flmul
  2058 ;;		___xxtofl
  2059 ;; This function is called by:
  2060 ;;		_main
  2061 ;; This function uses a non-reentrant model
  2062 ;;
  2063                           
  2064     0539                     _HCSR04_Get_Distance:	
  2065                           ;psect for function _HCSR04_Get_Distance
  2066                           
  2067     0539                     l1910:	
  2068                           ;incstack = 0
  2069                           ; Regs used in _HCSR04_Get_Distance: [wreg+status,2+status,0+btemp+1+pclath+cstack]
  2070                           
  2071                           
  2072                           ;hc_sr04.c: 22:     unsigned int timer_high;;hc_sr04.c: 23:     unsigned int timer_low;;
      +                          hc_sr04.c: 25:     PORTDbits.RD3 = 1;
  2073     0539  1283               	bcf	3,5	;RP0=0, select bank0
  2074     053A  1303               	bcf	3,6	;RP1=0, select bank0
  2075     053B  1588               	bsf	8,3	;volatile
  2076     053C                     l1912:
  2077                           
  2078                           ;hc_sr04.c: 26:     _delay((unsigned long)((10)*(8000000/4000000.0)));
  2079     053C  3005               	movlw	5
  2080     053D  1283               	bcf	3,5	;RP0=0, select bank0
  2081     053E  1303               	bcf	3,6	;RP1=0, select bank0
  2082     053F  00E6               	movwf	??_HCSR04_Get_Distance
  2083     0540                     u2767:
  2084     0540  0BE6               	decfsz	??_HCSR04_Get_Distance,f
  2085     0541  2D40               	goto	u2767
  2086     0542  2D43               	nop2
  2087     0543                     l1914:
  2088                           
  2089                           ;hc_sr04.c: 27:     PORTDbits.RD3 = 0;
  2090     0543  1283               	bcf	3,5	;RP0=0, select bank0
  2091     0544  1303               	bcf	3,6	;RP1=0, select bank0
  2092     0545  1188               	bcf	8,3	;volatile
  2093     0546                     l202:	
  2094                           ;hc_sr04.c: 28:     while(PORTDbits.RD2 == 0);
  2095                           
  2096     0546  1D08               	btfss	8,2	;volatile
  2097     0547  2D49               	goto	u2341
  2098     0548  2D4A               	goto	u2340
  2099     0549                     u2341:
  2100     0549  2D46               	goto	l202
  2101     054A                     u2340:
  2102     054A                     l1916:
  2103                           
  2104                           ;hc_sr04.c: 29:     TMR1H = 0x00;
  2105     054A  018F               	clrf	15	;volatile
  2106                           
  2107                           ;hc_sr04.c: 30:     TMR1L = 0x00;
  2108     054B  018E               	clrf	14	;volatile
  2109     054C                     l205:	
  2110                           ;hc_sr04.c: 31:     while(PORTDbits.RD2 == 1);
  2111                           
  2112     054C  1908               	btfsc	8,2	;volatile
  2113     054D  2D4F               	goto	u2351
  2114     054E  2D50               	goto	u2350
  2115     054F                     u2351:
  2116     054F  2D4C               	goto	l205
  2117     0550                     u2350:
  2118     0550                     l1918:
  2119                           
  2120                           ;hc_sr04.c: 32:     timer_low = TMR1L;
  2121     0550  080E               	movf	14,w	;volatile
  2122     0551  00E6               	movwf	??_HCSR04_Get_Distance
  2123     0552  01E7               	clrf	??_HCSR04_Get_Distance+1
  2124     0553  0866               	movf	??_HCSR04_Get_Distance,w
  2125     0554  1683               	bsf	3,5	;RP0=1, select bank1
  2126     0555  1303               	bcf	3,6	;RP1=0, select bank1
  2127     0556  00AA               	movwf	HCSR04_Get_Distance@timer_low^(0+128)
  2128     0557  1283               	bcf	3,5	;RP0=0, select bank0
  2129     0558  1303               	bcf	3,6	;RP1=0, select bank0
  2130     0559  0867               	movf	??_HCSR04_Get_Distance+1,w
  2131     055A  1683               	bsf	3,5	;RP0=1, select bank1
  2132     055B  1303               	bcf	3,6	;RP1=0, select bank1
  2133     055C  00AB               	movwf	(HCSR04_Get_Distance@timer_low+1)^(0+128)
  2134                           
  2135                           ;hc_sr04.c: 33:     timer_high = TMR1H;
  2136     055D  1283               	bcf	3,5	;RP0=0, select bank0
  2137     055E  1303               	bcf	3,6	;RP1=0, select bank0
  2138     055F  080F               	movf	15,w	;volatile
  2139     0560  00E6               	movwf	??_HCSR04_Get_Distance
  2140     0561  01E7               	clrf	??_HCSR04_Get_Distance+1
  2141     0562  0866               	movf	??_HCSR04_Get_Distance,w
  2142     0563  1683               	bsf	3,5	;RP0=1, select bank1
  2143     0564  1303               	bcf	3,6	;RP1=0, select bank1
  2144     0565  00A8               	movwf	HCSR04_Get_Distance@timer_high^(0+128)
  2145     0566  1283               	bcf	3,5	;RP0=0, select bank0
  2146     0567  1303               	bcf	3,6	;RP1=0, select bank0
  2147     0568  0867               	movf	??_HCSR04_Get_Distance+1,w
  2148     0569  1683               	bsf	3,5	;RP0=1, select bank1
  2149     056A  1303               	bcf	3,6	;RP1=0, select bank1
  2150     056B  00A9               	movwf	(HCSR04_Get_Distance@timer_high+1)^(0+128)
  2151     056C                     l1920:
  2152                           
  2153                           ;hc_sr04.c: 34:     float dis_hc = (((timer_high << 8) + timer_low)*0.000666*34.0)/2.0;
  2154     056C  303A               	movlw	58
  2155     056D  1283               	bcf	3,5	;RP0=0, select bank0
  2156     056E  1303               	bcf	3,6	;RP1=0, select bank0
  2157     056F  00B1               	movwf	___flmul@b+3
  2158     0570  302E               	movlw	46
  2159     0571  00B0               	movwf	___flmul@b+2
  2160     0572  3096               	movlw	150
  2161     0573  00AF               	movwf	___flmul@b+1
  2162     0574  3081               	movlw	129
  2163     0575  00AE               	movwf	___flmul@b
  2164     0576  1683               	bsf	3,5	;RP0=1, select bank1
  2165     0577  1303               	bcf	3,6	;RP1=0, select bank1
  2166     0578  0828               	movf	HCSR04_Get_Distance@timer_high^(0+128),w
  2167     0579  1283               	bcf	3,5	;RP0=0, select bank0
  2168     057A  1303               	bcf	3,6	;RP1=0, select bank0
  2169     057B  00E7               	movwf	??_HCSR04_Get_Distance+1
  2170     057C  01E6               	clrf	??_HCSR04_Get_Distance
  2171     057D  1683               	bsf	3,5	;RP0=1, select bank1
  2172     057E  1303               	bcf	3,6	;RP1=0, select bank1
  2173     057F  082A               	movf	HCSR04_Get_Distance@timer_low^(0+128),w
  2174     0580  1283               	bcf	3,5	;RP0=0, select bank0
  2175     0581  1303               	bcf	3,6	;RP1=0, select bank0
  2176     0582  0766               	addwf	??_HCSR04_Get_Distance,w
  2177     0583  00A0               	movwf	___xxtofl@val
  2178     0584  1683               	bsf	3,5	;RP0=1, select bank1
  2179     0585  1303               	bcf	3,6	;RP1=0, select bank1
  2180     0586  082B               	movf	(HCSR04_Get_Distance@timer_low+1)^(0+128),w
  2181     0587  1803               	skipnc
  2182     0588  0A2B               	incf	(HCSR04_Get_Distance@timer_low+1)^(0+128),w
  2183     0589  1283               	bcf	3,5	;RP0=0, select bank0
  2184     058A  1303               	bcf	3,6	;RP1=0, select bank0
  2185     058B  0767               	addwf	??_HCSR04_Get_Distance+1,w
  2186     058C  00A1               	movwf	___xxtofl@val+1
  2187     058D  01A2               	clrf	___xxtofl@val+2
  2188     058E  01A3               	clrf	___xxtofl@val+3
  2189     058F  3000               	movlw	0
  2190     0590  120A  118A  26EF  120A  118A  	fcall	___xxtofl
  2191     0595  1283               	bcf	3,5	;RP0=0, select bank0
  2192     0596  1303               	bcf	3,6	;RP1=0, select bank0
  2193     0597  0823               	movf	?___xxtofl+3,w
  2194     0598  00B5               	movwf	___flmul@a+3
  2195     0599  0822               	movf	?___xxtofl+2,w
  2196     059A  00B4               	movwf	___flmul@a+2
  2197     059B  0821               	movf	?___xxtofl+1,w
  2198     059C  00B3               	movwf	___flmul@a+1
  2199     059D  0820               	movf	?___xxtofl,w
  2200     059E  00B2               	movwf	___flmul@a
  2201     059F  120A  118A  2021  120A  118A  	fcall	___flmul
  2202     05A4  1283               	bcf	3,5	;RP0=0, select bank0
  2203     05A5  1303               	bcf	3,6	;RP1=0, select bank0
  2204     05A6  0831               	movf	?___flmul+3,w
  2205     05A7  1683               	bsf	3,5	;RP0=1, select bank1
  2206     05A8  1303               	bcf	3,6	;RP1=0, select bank1
  2207     05A9  00A7               	movwf	(_HCSR04_Get_Distance$1261+3)^(0+128)
  2208     05AA  1283               	bcf	3,5	;RP0=0, select bank0
  2209     05AB  1303               	bcf	3,6	;RP1=0, select bank0
  2210     05AC  0830               	movf	?___flmul+2,w
  2211     05AD  1683               	bsf	3,5	;RP0=1, select bank1
  2212     05AE  1303               	bcf	3,6	;RP1=0, select bank1
  2213     05AF  00A6               	movwf	(_HCSR04_Get_Distance$1261+2)^(0+128)
  2214     05B0  1283               	bcf	3,5	;RP0=0, select bank0
  2215     05B1  1303               	bcf	3,6	;RP1=0, select bank0
  2216     05B2  082F               	movf	?___flmul+1,w
  2217     05B3  1683               	bsf	3,5	;RP0=1, select bank1
  2218     05B4  1303               	bcf	3,6	;RP1=0, select bank1
  2219     05B5  00A5               	movwf	(_HCSR04_Get_Distance$1261+1)^(0+128)
  2220     05B6  1283               	bcf	3,5	;RP0=0, select bank0
  2221     05B7  1303               	bcf	3,6	;RP1=0, select bank0
  2222     05B8  082E               	movf	?___flmul,w
  2223     05B9  1683               	bsf	3,5	;RP0=1, select bank1
  2224     05BA  1303               	bcf	3,6	;RP1=0, select bank1
  2225     05BB  00A4               	movwf	_HCSR04_Get_Distance$1261^(0+128)
  2226     05BC                     l1922:
  2227                           
  2228                           ;hc_sr04.c: 34:     float dis_hc = (((timer_high << 8) + timer_low)*0.000666*34.0)/2.0;
  2229     05BC  3040               	movlw	64
  2230     05BD  1283               	bcf	3,5	;RP0=0, select bank0
  2231     05BE  1303               	bcf	3,6	;RP1=0, select bank0
  2232     05BF  00CB               	movwf	___fldiv@a+3
  2233     05C0  3000               	movlw	0
  2234     05C1  00CA               	movwf	___fldiv@a+2
  2235     05C2  3000               	movlw	0
  2236     05C3  00C9               	movwf	___fldiv@a+1
  2237     05C4  3000               	movlw	0
  2238     05C5  00C8               	movwf	___fldiv@a
  2239     05C6  3042               	movlw	66
  2240     05C7  00B1               	movwf	___flmul@b+3
  2241     05C8  3008               	movlw	8
  2242     05C9  00B0               	movwf	___flmul@b+2
  2243     05CA  3000               	movlw	0
  2244     05CB  00AF               	movwf	___flmul@b+1
  2245     05CC  3000               	movlw	0
  2246     05CD  00AE               	movwf	___flmul@b
  2247     05CE  1683               	bsf	3,5	;RP0=1, select bank1
  2248     05CF  1303               	bcf	3,6	;RP1=0, select bank1
  2249     05D0  0827               	movf	(_HCSR04_Get_Distance$1261+3)^(0+128),w
  2250     05D1  1283               	bcf	3,5	;RP0=0, select bank0
  2251     05D2  1303               	bcf	3,6	;RP1=0, select bank0
  2252     05D3  00B5               	movwf	___flmul@a+3
  2253     05D4  1683               	bsf	3,5	;RP0=1, select bank1
  2254     05D5  1303               	bcf	3,6	;RP1=0, select bank1
  2255     05D6  0826               	movf	(_HCSR04_Get_Distance$1261+2)^(0+128),w
  2256     05D7  1283               	bcf	3,5	;RP0=0, select bank0
  2257     05D8  1303               	bcf	3,6	;RP1=0, select bank0
  2258     05D9  00B4               	movwf	___flmul@a+2
  2259     05DA  1683               	bsf	3,5	;RP0=1, select bank1
  2260     05DB  1303               	bcf	3,6	;RP1=0, select bank1
  2261     05DC  0825               	movf	(_HCSR04_Get_Distance$1261+1)^(0+128),w
  2262     05DD  1283               	bcf	3,5	;RP0=0, select bank0
  2263     05DE  1303               	bcf	3,6	;RP1=0, select bank0
  2264     05DF  00B3               	movwf	___flmul@a+1
  2265     05E0  1683               	bsf	3,5	;RP0=1, select bank1
  2266     05E1  1303               	bcf	3,6	;RP1=0, select bank1
  2267     05E2  0824               	movf	_HCSR04_Get_Distance$1261^(0+128),w
  2268     05E3  1283               	bcf	3,5	;RP0=0, select bank0
  2269     05E4  1303               	bcf	3,6	;RP1=0, select bank0
  2270     05E5  00B2               	movwf	___flmul@a
  2271     05E6  120A  118A  2021  120A  118A  	fcall	___flmul
  2272     05EB  1283               	bcf	3,5	;RP0=0, select bank0
  2273     05EC  1303               	bcf	3,6	;RP1=0, select bank0
  2274     05ED  0831               	movf	?___flmul+3,w
  2275     05EE  00CF               	movwf	___fldiv@b+3
  2276     05EF  0830               	movf	?___flmul+2,w
  2277     05F0  00CE               	movwf	___fldiv@b+2
  2278     05F1  082F               	movf	?___flmul+1,w
  2279     05F2  00CD               	movwf	___fldiv@b+1
  2280     05F3  082E               	movf	?___flmul,w
  2281     05F4  00CC               	movwf	___fldiv@b
  2282     05F5  120A  118A  2366  120A  118A  	fcall	___fldiv
  2283     05FA  1283               	bcf	3,5	;RP0=0, select bank0
  2284     05FB  1303               	bcf	3,6	;RP1=0, select bank0
  2285     05FC  084B               	movf	?___fldiv+3,w
  2286     05FD  1683               	bsf	3,5	;RP0=1, select bank1
  2287     05FE  1303               	bcf	3,6	;RP1=0, select bank1
  2288     05FF  00A3               	movwf	(HCSR04_Get_Distance@dis_hc+3)^(0+128)
  2289     0600  1283               	bcf	3,5	;RP0=0, select bank0
  2290     0601  1303               	bcf	3,6	;RP1=0, select bank0
  2291     0602  084A               	movf	?___fldiv+2,w
  2292     0603  1683               	bsf	3,5	;RP0=1, select bank1
  2293     0604  1303               	bcf	3,6	;RP1=0, select bank1
  2294     0605  00A2               	movwf	(HCSR04_Get_Distance@dis_hc+2)^(0+128)
  2295     0606  1283               	bcf	3,5	;RP0=0, select bank0
  2296     0607  1303               	bcf	3,6	;RP1=0, select bank0
  2297     0608  0849               	movf	?___fldiv+1,w
  2298     0609  1683               	bsf	3,5	;RP0=1, select bank1
  2299     060A  1303               	bcf	3,6	;RP1=0, select bank1
  2300     060B  00A1               	movwf	(HCSR04_Get_Distance@dis_hc+1)^(0+128)
  2301     060C  1283               	bcf	3,5	;RP0=0, select bank0
  2302     060D  1303               	bcf	3,6	;RP1=0, select bank0
  2303     060E  0848               	movf	?___fldiv,w
  2304     060F  1683               	bsf	3,5	;RP0=1, select bank1
  2305     0610  1303               	bcf	3,6	;RP1=0, select bank1
  2306     0611  00A0               	movwf	HCSR04_Get_Distance@dis_hc^(0+128)
  2307                           
  2308                           ;hc_sr04.c: 35:     return dis_hc;
  2309     0612  0823               	movf	(HCSR04_Get_Distance@dis_hc+3)^(0+128),w
  2310     0613  1283               	bcf	3,5	;RP0=0, select bank0
  2311     0614  1303               	bcf	3,6	;RP1=0, select bank0
  2312     0615  00E5               	movwf	?_HCSR04_Get_Distance+3
  2313     0616  1683               	bsf	3,5	;RP0=1, select bank1
  2314     0617  1303               	bcf	3,6	;RP1=0, select bank1
  2315     0618  0822               	movf	(HCSR04_Get_Distance@dis_hc+2)^(0+128),w
  2316     0619  1283               	bcf	3,5	;RP0=0, select bank0
  2317     061A  1303               	bcf	3,6	;RP1=0, select bank0
  2318     061B  00E4               	movwf	?_HCSR04_Get_Distance+2
  2319     061C  1683               	bsf	3,5	;RP0=1, select bank1
  2320     061D  1303               	bcf	3,6	;RP1=0, select bank1
  2321     061E  0821               	movf	(HCSR04_Get_Distance@dis_hc+1)^(0+128),w
  2322     061F  1283               	bcf	3,5	;RP0=0, select bank0
  2323     0620  1303               	bcf	3,6	;RP1=0, select bank0
  2324     0621  00E3               	movwf	?_HCSR04_Get_Distance+1
  2325     0622  1683               	bsf	3,5	;RP0=1, select bank1
  2326     0623  1303               	bcf	3,6	;RP1=0, select bank1
  2327     0624  0820               	movf	HCSR04_Get_Distance@dis_hc^(0+128),w
  2328     0625  1283               	bcf	3,5	;RP0=0, select bank0
  2329     0626  1303               	bcf	3,6	;RP1=0, select bank0
  2330     0627  00E2               	movwf	?_HCSR04_Get_Distance
  2331     0628                     l208:
  2332     0628  0008               	return
  2333     0629                     __end_of_HCSR04_Get_Distance:
  2334                           
  2335                           	psect	text11
  2336     06EF                     __ptext11:	
  2337 ;; *************** function ___xxtofl *****************
  2338 ;; Defined at:
  2339 ;;		line 10 in file "E:\Program Files\Microchip\xc8\v2.40\pic\sources\c90\common\xxtofl.c"
  2340 ;; Parameters:    Size  Location     Type
  2341 ;;  sign            1    wreg     unsigned char 
  2342 ;;  val             4    0[BANK0 ] long 
  2343 ;; Auto vars:     Size  Location     Type
  2344 ;;  sign            1    8[BANK0 ] unsigned char 
  2345 ;;  arg             4   10[BANK0 ] unsigned long 
  2346 ;;  exp             1    9[BANK0 ] unsigned char 
  2347 ;; Return value:  Size  Location     Type
  2348 ;;                  4    0[BANK0 ] unsigned char 
  2349 ;; Registers used:
  2350 ;;		wreg, status,2, status,0
  2351 ;; Tracked objects:
  2352 ;;		On entry : 0/0
  2353 ;;		On exit  : 0/0
  2354 ;;		Unchanged: 0/0
  2355 ;; Data sizes:     COMMON   BANK0   BANK1   BANK3   BANK2
  2356 ;;      Params:         0       4       0       0       0
  2357 ;;      Locals:         0       6       0       0       0
  2358 ;;      Temps:          0       4       0       0       0
  2359 ;;      Totals:         0      14       0       0       0
  2360 ;;Total ram usage:       14 bytes
  2361 ;; Hardware stack levels used: 1
  2362 ;; Hardware stack levels required when called: 2
  2363 ;; This function calls:
  2364 ;;		Nothing
  2365 ;; This function is called by:
  2366 ;;		_HCSR04_Get_Distance
  2367 ;;		_floattostr
  2368 ;; This function uses a non-reentrant model
  2369 ;;
  2370                           
  2371     06EF                     ___xxtofl:	
  2372                           ;psect for function ___xxtofl
  2373                           
  2374                           
  2375                           ;incstack = 0
  2376                           ; Regs used in ___xxtofl: [wreg+status,2+status,0]
  2377                           ;___xxtofl@sign stored from wreg
  2378     06EF  1283               	bcf	3,5	;RP0=0, select bank0
  2379     06F0  1303               	bcf	3,6	;RP1=0, select bank0
  2380     06F1  00A8               	movwf	___xxtofl@sign
  2381     06F2                     l1846:
  2382     06F2  0828               	movf	___xxtofl@sign,w
  2383     06F3  1903               	btfsc	3,2
  2384     06F4  2EF6               	goto	u2201
  2385     06F5  2EF7               	goto	u2200
  2386     06F6                     u2201:
  2387     06F6  2F0B               	goto	l1852
  2388     06F7                     u2200:
  2389     06F7                     l1848:
  2390     06F7  1FA3               	btfss	___xxtofl@val+3,7
  2391     06F8  2EFA               	goto	u2211
  2392     06F9  2EFB               	goto	u2210
  2393     06FA                     u2211:
  2394     06FA  2F0B               	goto	l1852
  2395     06FB                     u2210:
  2396     06FB                     l1850:
  2397     06FB  0920               	comf	___xxtofl@val,w
  2398     06FC  00AA               	movwf	___xxtofl@arg
  2399     06FD  0921               	comf	___xxtofl@val+1,w
  2400     06FE  00AB               	movwf	___xxtofl@arg+1
  2401     06FF  0922               	comf	___xxtofl@val+2,w
  2402     0700  00AC               	movwf	___xxtofl@arg+2
  2403     0701  0923               	comf	___xxtofl@val+3,w
  2404     0702  00AD               	movwf	___xxtofl@arg+3
  2405     0703  0AAA               	incf	___xxtofl@arg,f
  2406     0704  1903               	skipnz
  2407     0705  0AAB               	incf	___xxtofl@arg+1,f
  2408     0706  1903               	skipnz
  2409     0707  0AAC               	incf	___xxtofl@arg+2,f
  2410     0708  1903               	skipnz
  2411     0709  0AAD               	incf	___xxtofl@arg+3,f
  2412     070A  2F13               	goto	l727
  2413     070B                     l1852:
  2414     070B  0823               	movf	___xxtofl@val+3,w
  2415     070C  00AD               	movwf	___xxtofl@arg+3
  2416     070D  0822               	movf	___xxtofl@val+2,w
  2417     070E  00AC               	movwf	___xxtofl@arg+2
  2418     070F  0821               	movf	___xxtofl@val+1,w
  2419     0710  00AB               	movwf	___xxtofl@arg+1
  2420     0711  0820               	movf	___xxtofl@val,w
  2421     0712  00AA               	movwf	___xxtofl@arg
  2422     0713                     l727:
  2423     0713  0823               	movf	___xxtofl@val+3,w
  2424     0714  0422               	iorwf	___xxtofl@val+2,w
  2425     0715  0421               	iorwf	___xxtofl@val+1,w
  2426     0716  0420               	iorwf	___xxtofl@val,w
  2427     0717  1D03               	skipz
  2428     0718  2F1A               	goto	u2221
  2429     0719  2F1B               	goto	u2220
  2430     071A                     u2221:
  2431     071A  2F24               	goto	l1858
  2432     071B                     u2220:
  2433     071B                     l1854:
  2434     071B  3000               	movlw	0
  2435     071C  00A3               	movwf	?___xxtofl+3
  2436     071D  3000               	movlw	0
  2437     071E  00A2               	movwf	?___xxtofl+2
  2438     071F  3000               	movlw	0
  2439     0720  00A1               	movwf	?___xxtofl+1
  2440     0721  3000               	movlw	0
  2441     0722  00A0               	movwf	?___xxtofl
  2442     0723  2FA8               	goto	l729
  2443     0724                     l1858:
  2444     0724  3096               	movlw	150
  2445     0725  00A9               	movwf	___xxtofl@exp
  2446     0726  2F34               	goto	l1862
  2447     0727                     l1860:
  2448     0727  3001               	movlw	1
  2449     0728  00A4               	movwf	??___xxtofl
  2450     0729  0824               	movf	??___xxtofl,w
  2451     072A  07A9               	addwf	___xxtofl@exp,f
  2452     072B  3001               	movlw	1
  2453     072C                     u2235:
  2454     072C  1003               	clrc
  2455     072D  0CAD               	rrf	___xxtofl@arg+3,f
  2456     072E  0CAC               	rrf	___xxtofl@arg+2,f
  2457     072F  0CAB               	rrf	___xxtofl@arg+1,f
  2458     0730  0CAA               	rrf	___xxtofl@arg,f
  2459     0731  3EFF               	addlw	-1
  2460     0732  1D03               	skipz
  2461     0733  2F2C               	goto	u2235
  2462     0734                     l1862:
  2463     0734  30FE               	movlw	254
  2464     0735  052D               	andwf	___xxtofl@arg+3,w
  2465     0736  1D03               	btfss	3,2
  2466     0737  2F39               	goto	u2241
  2467     0738  2F3A               	goto	u2240
  2468     0739                     u2241:
  2469     0739  2F27               	goto	l1860
  2470     073A                     u2240:
  2471     073A  2F56               	goto	l733
  2472     073B                     l1864:
  2473     073B  3001               	movlw	1
  2474     073C  00A4               	movwf	??___xxtofl
  2475     073D  0824               	movf	??___xxtofl,w
  2476     073E  07A9               	addwf	___xxtofl@exp,f
  2477     073F                     l1866:
  2478     073F  3001               	movlw	1
  2479     0740  07AA               	addwf	___xxtofl@arg,f
  2480     0741  3000               	movlw	0
  2481     0742  1803               	skipnc
  2482     0743  3001               	movlw	1
  2483     0744  07AB               	addwf	___xxtofl@arg+1,f
  2484     0745  3000               	movlw	0
  2485     0746  1803               	skipnc
  2486     0747  3001               	movlw	1
  2487     0748  07AC               	addwf	___xxtofl@arg+2,f
  2488     0749  3000               	movlw	0
  2489     074A  1803               	skipnc
  2490     074B  3001               	movlw	1
  2491     074C  07AD               	addwf	___xxtofl@arg+3,f
  2492     074D                     l1868:
  2493     074D  3001               	movlw	1
  2494     074E                     u2255:
  2495     074E  1003               	clrc
  2496     074F  0CAD               	rrf	___xxtofl@arg+3,f
  2497     0750  0CAC               	rrf	___xxtofl@arg+2,f
  2498     0751  0CAB               	rrf	___xxtofl@arg+1,f
  2499     0752  0CAA               	rrf	___xxtofl@arg,f
  2500     0753  3EFF               	addlw	-1
  2501     0754  1D03               	skipz
  2502     0755  2F4E               	goto	u2255
  2503     0756                     l733:
  2504     0756  30FF               	movlw	255
  2505     0757  052D               	andwf	___xxtofl@arg+3,w
  2506     0758  1D03               	btfss	3,2
  2507     0759  2F5B               	goto	u2261
  2508     075A  2F5C               	goto	u2260
  2509     075B                     u2261:
  2510     075B  2F3B               	goto	l1864
  2511     075C                     u2260:
  2512     075C  2F68               	goto	l1872
  2513     075D                     l1870:
  2514     075D  3001               	movlw	1
  2515     075E  02A9               	subwf	___xxtofl@exp,f
  2516     075F  3001               	movlw	1
  2517     0760  00A4               	movwf	??___xxtofl
  2518     0761                     u2275:
  2519     0761  1003               	clrc
  2520     0762  0DAA               	rlf	___xxtofl@arg,f
  2521     0763  0DAB               	rlf	___xxtofl@arg+1,f
  2522     0764  0DAC               	rlf	___xxtofl@arg+2,f
  2523     0765  0DAD               	rlf	___xxtofl@arg+3,f
  2524     0766  0BA4               	decfsz	??___xxtofl,f
  2525     0767  2F61               	goto	u2275
  2526     0768                     l1872:
  2527     0768  1BAC               	btfsc	___xxtofl@arg+2,7
  2528     0769  2F6B               	goto	u2281
  2529     076A  2F6C               	goto	u2280
  2530     076B                     u2281:
  2531     076B  2F72               	goto	l740
  2532     076C                     u2280:
  2533     076C                     l1874:
  2534     076C  3002               	movlw	2
  2535     076D  0229               	subwf	___xxtofl@exp,w
  2536     076E  1803               	skipnc
  2537     076F  2F71               	goto	u2291
  2538     0770  2F72               	goto	u2290
  2539     0771                     u2291:
  2540     0771  2F5D               	goto	l1870
  2541     0772                     u2290:
  2542     0772                     l740:
  2543     0772  1829               	btfsc	___xxtofl@exp,0
  2544     0773  2F75               	goto	u2301
  2545     0774  2F76               	goto	u2300
  2546     0775                     u2301:
  2547     0775  2F7E               	goto	l741
  2548     0776                     u2300:
  2549     0776                     l1876:
  2550     0776  30FF               	movlw	255
  2551     0777  05AA               	andwf	___xxtofl@arg,f
  2552     0778  30FF               	movlw	255
  2553     0779  05AB               	andwf	___xxtofl@arg+1,f
  2554     077A  307F               	movlw	127
  2555     077B  05AC               	andwf	___xxtofl@arg+2,f
  2556     077C  30FF               	movlw	255
  2557     077D  05AD               	andwf	___xxtofl@arg+3,f
  2558     077E                     l741:
  2559     077E  1003               	clrc
  2560     077F  0CA9               	rrf	___xxtofl@exp,f
  2561     0780                     l1878:
  2562     0780  0829               	movf	___xxtofl@exp,w
  2563     0781  00A4               	movwf	??___xxtofl
  2564     0782  01A5               	clrf	??___xxtofl+1
  2565     0783  01A6               	clrf	??___xxtofl+2
  2566     0784  01A7               	clrf	??___xxtofl+3
  2567     0785  3018               	movlw	24
  2568     0786                     u2315:
  2569     0786  1003               	clrc
  2570     0787  0DA4               	rlf	??___xxtofl,f
  2571     0788  0DA5               	rlf	??___xxtofl+1,f
  2572     0789  0DA6               	rlf	??___xxtofl+2,f
  2573     078A  0DA7               	rlf	??___xxtofl+3,f
  2574     078B                     u2310:
  2575     078B  3EFF               	addlw	-1
  2576     078C  1D03               	skipz
  2577     078D  2F86               	goto	u2315
  2578     078E  0824               	movf	??___xxtofl,w
  2579     078F  04AA               	iorwf	___xxtofl@arg,f
  2580     0790  0825               	movf	??___xxtofl+1,w
  2581     0791  04AB               	iorwf	___xxtofl@arg+1,f
  2582     0792  0826               	movf	??___xxtofl+2,w
  2583     0793  04AC               	iorwf	___xxtofl@arg+2,f
  2584     0794  0827               	movf	??___xxtofl+3,w
  2585     0795  04AD               	iorwf	___xxtofl@arg+3,f
  2586     0796                     l1880:
  2587     0796  0828               	movf	___xxtofl@sign,w
  2588     0797  1903               	btfsc	3,2
  2589     0798  2F9A               	goto	u2321
  2590     0799  2F9B               	goto	u2320
  2591     079A                     u2321:
  2592     079A  2FA0               	goto	l1886
  2593     079B                     u2320:
  2594     079B                     l1882:
  2595     079B  1FA3               	btfss	___xxtofl@val+3,7
  2596     079C  2F9E               	goto	u2331
  2597     079D  2F9F               	goto	u2330
  2598     079E                     u2331:
  2599     079E  2FA0               	goto	l1886
  2600     079F                     u2330:
  2601     079F                     l1884:
  2602     079F  17AD               	bsf	___xxtofl@arg+3,7
  2603     07A0                     l1886:
  2604     07A0  082D               	movf	___xxtofl@arg+3,w
  2605     07A1  00A3               	movwf	?___xxtofl+3
  2606     07A2  082C               	movf	___xxtofl@arg+2,w
  2607     07A3  00A2               	movwf	?___xxtofl+2
  2608     07A4  082B               	movf	___xxtofl@arg+1,w
  2609     07A5  00A1               	movwf	?___xxtofl+1
  2610     07A6  082A               	movf	___xxtofl@arg,w
  2611     07A7  00A0               	movwf	?___xxtofl
  2612     07A8                     l729:
  2613     07A8  0008               	return
  2614     07A9                     __end_of___xxtofl:
  2615                           
  2616                           	psect	text12
  2617     0021                     __ptext12:	
  2618 ;; *************** function ___flmul *****************
  2619 ;; Defined at:
  2620 ;;		line 8 in file "E:\Program Files\Microchip\xc8\v2.40\pic\sources\c90\common\sprcmul.c"
  2621 ;; Parameters:    Size  Location     Type
  2622 ;;  b               4   14[BANK0 ] unsigned char 
  2623 ;;  a               4   18[BANK0 ] unsigned char 
  2624 ;; Auto vars:     Size  Location     Type
  2625 ;;  prod            4   34[BANK0 ] struct .
  2626 ;;  grs             4   28[BANK0 ] unsigned long 
  2627 ;;  temp            2   38[BANK0 ] struct .
  2628 ;;  bexp            1   33[BANK0 ] unsigned char 
  2629 ;;  aexp            1   32[BANK0 ] unsigned char 
  2630 ;;  sign            1   27[BANK0 ] unsigned char 
  2631 ;; Return value:  Size  Location     Type
  2632 ;;                  4   14[BANK0 ] unsigned char 
  2633 ;; Registers used:
  2634 ;;		wreg, status,2, status,0, btemp+1, pclath, cstack
  2635 ;; Tracked objects:
  2636 ;;		On entry : 0/0
  2637 ;;		On exit  : 0/0
  2638 ;;		Unchanged: 0/0
  2639 ;; Data sizes:     COMMON   BANK0   BANK1   BANK3   BANK2
  2640 ;;      Params:         0       8       0       0       0
  2641 ;;      Locals:         0      13       0       0       0
  2642 ;;      Temps:          0       5       0       0       0
  2643 ;;      Totals:         0      26       0       0       0
  2644 ;;Total ram usage:       26 bytes
  2645 ;; Hardware stack levels used: 1
  2646 ;; Hardware stack levels required when called: 3
  2647 ;; This function calls:
  2648 ;;		__Umul8_16
  2649 ;; This function is called by:
  2650 ;;		_main
  2651 ;;		_HCSR04_Get_Distance
  2652 ;;		_floattostr
  2653 ;; This function uses a non-reentrant model
  2654 ;;
  2655                           
  2656     0021                     ___flmul:	
  2657                           ;psect for function ___flmul
  2658                           
  2659     0021                     l1706:	
  2660                           ;incstack = 0
  2661                           ; Regs used in ___flmul: [wreg+status,2+status,0+btemp+1+pclath+cstack]
  2662                           
  2663     0021  1283               	bcf	3,5	;RP0=0, select bank0
  2664     0022  1303               	bcf	3,6	;RP1=0, select bank0
  2665     0023  0831               	movf	___flmul@b+3,w
  2666     0024  3980               	andlw	128
  2667     0025  00BB               	movwf	___flmul@sign
  2668     0026                     l1708:
  2669     0026  0831               	movf	___flmul@b+3,w
  2670     0027  00B6               	movwf	??___flmul
  2671     0028  0736               	addwf	??___flmul,w
  2672     0029  00C1               	movwf	___flmul@bexp
  2673     002A                     l1710:
  2674     002A  1FB0               	btfss	___flmul@b+2,7
  2675     002B  282D               	goto	u1831
  2676     002C  282E               	goto	u1830
  2677     002D                     u1831:
  2678     002D  282F               	goto	l1714
  2679     002E                     u1830:
  2680     002E                     l1712:
  2681     002E  1441               	bsf	___flmul@bexp,0
  2682     002F                     l1714:
  2683     002F  0841               	movf	___flmul@bexp,w
  2684     0030  1903               	btfsc	3,2
  2685     0031  2833               	goto	u1841
  2686     0032  2834               	goto	u1840
  2687     0033                     u1841:
  2688     0033  2843               	goto	l1722
  2689     0034                     u1840:
  2690     0034                     l1716:
  2691     0034  0A41               	incf	___flmul@bexp,w
  2692     0035  1D03               	btfss	3,2
  2693     0036  2838               	goto	u1851
  2694     0037  2839               	goto	u1850
  2695     0038                     u1851:
  2696     0038  2841               	goto	l1720
  2697     0039                     u1850:
  2698     0039                     l1718:
  2699     0039  3000               	movlw	0
  2700     003A  00B1               	movwf	___flmul@b+3
  2701     003B  3000               	movlw	0
  2702     003C  00B0               	movwf	___flmul@b+2
  2703     003D  3000               	movlw	0
  2704     003E  00AF               	movwf	___flmul@b+1
  2705     003F  3000               	movlw	0
  2706     0040  00AE               	movwf	___flmul@b
  2707     0041                     l1720:
  2708     0041  17B0               	bsf	___flmul@b+2,7
  2709     0042  284B               	goto	l1724
  2710     0043                     l1722:
  2711     0043  3000               	movlw	0
  2712     0044  00B1               	movwf	___flmul@b+3
  2713     0045  3000               	movlw	0
  2714     0046  00B0               	movwf	___flmul@b+2
  2715     0047  3000               	movlw	0
  2716     0048  00AF               	movwf	___flmul@b+1
  2717     0049  3000               	movlw	0
  2718     004A  00AE               	movwf	___flmul@b
  2719     004B                     l1724:
  2720     004B  0835               	movf	___flmul@a+3,w
  2721     004C  3980               	andlw	128
  2722     004D  00B6               	movwf	??___flmul
  2723     004E  0836               	movf	??___flmul,w
  2724     004F  06BB               	xorwf	___flmul@sign,f
  2725     0050                     l1726:
  2726     0050  0835               	movf	___flmul@a+3,w
  2727     0051  00B6               	movwf	??___flmul
  2728     0052  0736               	addwf	??___flmul,w
  2729     0053  00C0               	movwf	___flmul@aexp
  2730     0054                     l1728:
  2731     0054  1FB4               	btfss	___flmul@a+2,7
  2732     0055  2857               	goto	u1861
  2733     0056  2858               	goto	u1860
  2734     0057                     u1861:
  2735     0057  2859               	goto	l1732
  2736     0058                     u1860:
  2737     0058                     l1730:
  2738     0058  1440               	bsf	___flmul@aexp,0
  2739     0059                     l1732:
  2740     0059  0840               	movf	___flmul@aexp,w
  2741     005A  1903               	btfsc	3,2
  2742     005B  285D               	goto	u1871
  2743     005C  285E               	goto	u1870
  2744     005D                     u1871:
  2745     005D  286D               	goto	l1740
  2746     005E                     u1870:
  2747     005E                     l1734:
  2748     005E  0A40               	incf	___flmul@aexp,w
  2749     005F  1D03               	btfss	3,2
  2750     0060  2862               	goto	u1881
  2751     0061  2863               	goto	u1880
  2752     0062                     u1881:
  2753     0062  286B               	goto	l1738
  2754     0063                     u1880:
  2755     0063                     l1736:
  2756     0063  3000               	movlw	0
  2757     0064  00B5               	movwf	___flmul@a+3
  2758     0065  3000               	movlw	0
  2759     0066  00B4               	movwf	___flmul@a+2
  2760     0067  3000               	movlw	0
  2761     0068  00B3               	movwf	___flmul@a+1
  2762     0069  3000               	movlw	0
  2763     006A  00B2               	movwf	___flmul@a
  2764     006B                     l1738:
  2765     006B  17B4               	bsf	___flmul@a+2,7
  2766     006C  2875               	goto	l1742
  2767     006D                     l1740:
  2768     006D  3000               	movlw	0
  2769     006E  00B5               	movwf	___flmul@a+3
  2770     006F  3000               	movlw	0
  2771     0070  00B4               	movwf	___flmul@a+2
  2772     0071  3000               	movlw	0
  2773     0072  00B3               	movwf	___flmul@a+1
  2774     0073  3000               	movlw	0
  2775     0074  00B2               	movwf	___flmul@a
  2776     0075                     l1742:
  2777     0075  0840               	movf	___flmul@aexp,w
  2778     0076  1903               	btfsc	3,2
  2779     0077  2879               	goto	u1891
  2780     0078  287A               	goto	u1890
  2781     0079                     u1891:
  2782     0079  287F               	goto	l1746
  2783     007A                     u1890:
  2784     007A                     l1744:
  2785     007A  0841               	movf	___flmul@bexp,w
  2786     007B  1D03               	btfss	3,2
  2787     007C  287E               	goto	u1901
  2788     007D  287F               	goto	u1900
  2789     007E                     u1901:
  2790     007E  2888               	goto	l1750
  2791     007F                     u1900:
  2792     007F                     l1746:
  2793     007F  3000               	movlw	0
  2794     0080  00B1               	movwf	?___flmul+3
  2795     0081  3000               	movlw	0
  2796     0082  00B0               	movwf	?___flmul+2
  2797     0083  3000               	movlw	0
  2798     0084  00AF               	movwf	?___flmul+1
  2799     0085  3000               	movlw	0
  2800     0086  00AE               	movwf	?___flmul
  2801     0087  2B65               	goto	l683
  2802     0088                     l1750:
  2803     0088  082E               	movf	___flmul@b,w
  2804     0089  00A0               	movwf	__Umul8_16@multiplicand
  2805     008A  0834               	movf	___flmul@a+2,w
  2806     008B  120A  158A  266E  120A  118A  	fcall	__Umul8_16
  2807     0090  1283               	bcf	3,5	;RP0=0, select bank0
  2808     0091  1303               	bcf	3,6	;RP1=0, select bank0
  2809     0092  0821               	movf	?__Umul8_16+1,w
  2810     0093  00C7               	movwf	___flmul@temp+1
  2811     0094  0820               	movf	?__Umul8_16,w
  2812     0095  00C6               	movwf	___flmul@temp
  2813     0096                     l1752:
  2814     0096  0846               	movf	___flmul@temp,w
  2815     0097  00B6               	movwf	??___flmul
  2816     0098  01B7               	clrf	??___flmul+1
  2817     0099  01B8               	clrf	??___flmul+2
  2818     009A  01B9               	clrf	??___flmul+3
  2819     009B  0839               	movf	??___flmul+3,w
  2820     009C  00BF               	movwf	___flmul@grs+3
  2821     009D  0838               	movf	??___flmul+2,w
  2822     009E  00BE               	movwf	___flmul@grs+2
  2823     009F  0837               	movf	??___flmul+1,w
  2824     00A0  00BD               	movwf	___flmul@grs+1
  2825     00A1  0836               	movf	??___flmul,w
  2826     00A2  00BC               	movwf	___flmul@grs
  2827     00A3                     l1754:
  2828     00A3  0847               	movf	___flmul@temp+1,w
  2829     00A4  00B6               	movwf	??___flmul
  2830     00A5  01B7               	clrf	??___flmul+1
  2831     00A6  01B8               	clrf	??___flmul+2
  2832     00A7  01B9               	clrf	??___flmul+3
  2833     00A8  0839               	movf	??___flmul+3,w
  2834     00A9  00C5               	movwf	___flmul@prod+3
  2835     00AA  0838               	movf	??___flmul+2,w
  2836     00AB  00C4               	movwf	___flmul@prod+2
  2837     00AC  0837               	movf	??___flmul+1,w
  2838     00AD  00C3               	movwf	___flmul@prod+1
  2839     00AE  0836               	movf	??___flmul,w
  2840     00AF  00C2               	movwf	___flmul@prod
  2841     00B0  082F               	movf	___flmul@b+1,w
  2842     00B1  00A0               	movwf	__Umul8_16@multiplicand
  2843     00B2  0833               	movf	___flmul@a+1,w
  2844     00B3  120A  158A  266E  120A  118A  	fcall	__Umul8_16
  2845     00B8  1283               	bcf	3,5	;RP0=0, select bank0
  2846     00B9  1303               	bcf	3,6	;RP1=0, select bank0
  2847     00BA  0821               	movf	?__Umul8_16+1,w
  2848     00BB  00C7               	movwf	___flmul@temp+1
  2849     00BC  0820               	movf	?__Umul8_16,w
  2850     00BD  00C6               	movwf	___flmul@temp
  2851     00BE                     l1756:
  2852     00BE  0846               	movf	___flmul@temp,w
  2853     00BF  00B6               	movwf	??___flmul
  2854     00C0  01B7               	clrf	??___flmul+1
  2855     00C1  01B8               	clrf	??___flmul+2
  2856     00C2  01B9               	clrf	??___flmul+3
  2857     00C3  0836               	movf	??___flmul,w
  2858     00C4  07BC               	addwf	___flmul@grs,f
  2859     00C5  0837               	movf	??___flmul+1,w
  2860     00C6  1103               	clrz
  2861     00C7  1803               	skipnc
  2862     00C8  3E01               	addlw	1
  2863     00C9  1903               	skipnz
  2864     00CA  28CC               	goto	u1911
  2865     00CB  07BD               	addwf	___flmul@grs+1,f
  2866     00CC                     u1911:
  2867     00CC  0838               	movf	??___flmul+2,w
  2868     00CD  1103               	clrz
  2869     00CE  1803               	skipnc
  2870     00CF  3E01               	addlw	1
  2871     00D0  1903               	skipnz
  2872     00D1  28D3               	goto	u1912
  2873     00D2  07BE               	addwf	___flmul@grs+2,f
  2874     00D3                     u1912:
  2875     00D3  0839               	movf	??___flmul+3,w
  2876     00D4  1103               	clrz
  2877     00D5  1803               	skipnc
  2878     00D6  3E01               	addlw	1
  2879     00D7  1903               	skipnz
  2880     00D8  28DA               	goto	u1913
  2881     00D9  07BF               	addwf	___flmul@grs+3,f
  2882     00DA                     u1913:
  2883     00DA                     l1758:
  2884     00DA  0847               	movf	___flmul@temp+1,w
  2885     00DB  00B6               	movwf	??___flmul
  2886     00DC  01B7               	clrf	??___flmul+1
  2887     00DD  01B8               	clrf	??___flmul+2
  2888     00DE  01B9               	clrf	??___flmul+3
  2889     00DF  0836               	movf	??___flmul,w
  2890     00E0  07C2               	addwf	___flmul@prod,f
  2891     00E1  0837               	movf	??___flmul+1,w
  2892     00E2  1103               	clrz
  2893     00E3  1803               	skipnc
  2894     00E4  3E01               	addlw	1
  2895     00E5  1903               	skipnz
  2896     00E6  28E8               	goto	u1921
  2897     00E7  07C3               	addwf	___flmul@prod+1,f
  2898     00E8                     u1921:
  2899     00E8  0838               	movf	??___flmul+2,w
  2900     00E9  1103               	clrz
  2901     00EA  1803               	skipnc
  2902     00EB  3E01               	addlw	1
  2903     00EC  1903               	skipnz
  2904     00ED  28EF               	goto	u1922
  2905     00EE  07C4               	addwf	___flmul@prod+2,f
  2906     00EF                     u1922:
  2907     00EF  0839               	movf	??___flmul+3,w
  2908     00F0  1103               	clrz
  2909     00F1  1803               	skipnc
  2910     00F2  3E01               	addlw	1
  2911     00F3  1903               	skipnz
  2912     00F4  28F6               	goto	u1923
  2913     00F5  07C5               	addwf	___flmul@prod+3,f
  2914     00F6                     u1923:
  2915     00F6  0830               	movf	___flmul@b+2,w
  2916     00F7  00A0               	movwf	__Umul8_16@multiplicand
  2917     00F8  0832               	movf	___flmul@a,w
  2918     00F9  120A  158A  266E  120A  118A  	fcall	__Umul8_16
  2919     00FE  1283               	bcf	3,5	;RP0=0, select bank0
  2920     00FF  1303               	bcf	3,6	;RP1=0, select bank0
  2921     0100  0821               	movf	?__Umul8_16+1,w
  2922     0101  00C7               	movwf	___flmul@temp+1
  2923     0102  0820               	movf	?__Umul8_16,w
  2924     0103  00C6               	movwf	___flmul@temp
  2925     0104                     l1760:
  2926     0104  0846               	movf	___flmul@temp,w
  2927     0105  00B6               	movwf	??___flmul
  2928     0106  01B7               	clrf	??___flmul+1
  2929     0107  01B8               	clrf	??___flmul+2
  2930     0108  01B9               	clrf	??___flmul+3
  2931     0109  0836               	movf	??___flmul,w
  2932     010A  07BC               	addwf	___flmul@grs,f
  2933     010B  0837               	movf	??___flmul+1,w
  2934     010C  1103               	clrz
  2935     010D  1803               	skipnc
  2936     010E  3E01               	addlw	1
  2937     010F  1903               	skipnz
  2938     0110  2912               	goto	u1931
  2939     0111  07BD               	addwf	___flmul@grs+1,f
  2940     0112                     u1931:
  2941     0112  0838               	movf	??___flmul+2,w
  2942     0113  1103               	clrz
  2943     0114  1803               	skipnc
  2944     0115  3E01               	addlw	1
  2945     0116  1903               	skipnz
  2946     0117  2919               	goto	u1932
  2947     0118  07BE               	addwf	___flmul@grs+2,f
  2948     0119                     u1932:
  2949     0119  0839               	movf	??___flmul+3,w
  2950     011A  1103               	clrz
  2951     011B  1803               	skipnc
  2952     011C  3E01               	addlw	1
  2953     011D  1903               	skipnz
  2954     011E  2920               	goto	u1933
  2955     011F  07BF               	addwf	___flmul@grs+3,f
  2956     0120                     u1933:
  2957     0120                     l1762:
  2958     0120  0847               	movf	___flmul@temp+1,w
  2959     0121  00B6               	movwf	??___flmul
  2960     0122  01B7               	clrf	??___flmul+1
  2961     0123  01B8               	clrf	??___flmul+2
  2962     0124  01B9               	clrf	??___flmul+3
  2963     0125  0836               	movf	??___flmul,w
  2964     0126  07C2               	addwf	___flmul@prod,f
  2965     0127  0837               	movf	??___flmul+1,w
  2966     0128  1103               	clrz
  2967     0129  1803               	skipnc
  2968     012A  3E01               	addlw	1
  2969     012B  1903               	skipnz
  2970     012C  292E               	goto	u1941
  2971     012D  07C3               	addwf	___flmul@prod+1,f
  2972     012E                     u1941:
  2973     012E  0838               	movf	??___flmul+2,w
  2974     012F  1103               	clrz
  2975     0130  1803               	skipnc
  2976     0131  3E01               	addlw	1
  2977     0132  1903               	skipnz
  2978     0133  2935               	goto	u1942
  2979     0134  07C4               	addwf	___flmul@prod+2,f
  2980     0135                     u1942:
  2981     0135  0839               	movf	??___flmul+3,w
  2982     0136  1103               	clrz
  2983     0137  1803               	skipnc
  2984     0138  3E01               	addlw	1
  2985     0139  1903               	skipnz
  2986     013A  293C               	goto	u1943
  2987     013B  07C5               	addwf	___flmul@prod+3,f
  2988     013C                     u1943:
  2989     013C                     l1764:
  2990     013C  3008               	movlw	8
  2991     013D  00B6               	movwf	??___flmul
  2992     013E                     u1955:
  2993     013E  1003               	clrc
  2994     013F  0DBC               	rlf	___flmul@grs,f
  2995     0140  0DBD               	rlf	___flmul@grs+1,f
  2996     0141  0DBE               	rlf	___flmul@grs+2,f
  2997     0142  0DBF               	rlf	___flmul@grs+3,f
  2998     0143  0BB6               	decfsz	??___flmul,f
  2999     0144  293E               	goto	u1955
  3000     0145                     l1766:
  3001     0145  082F               	movf	___flmul@b+1,w
  3002     0146  00A0               	movwf	__Umul8_16@multiplicand
  3003     0147  0832               	movf	___flmul@a,w
  3004     0148  120A  158A  266E  120A  118A  	fcall	__Umul8_16
  3005     014D  1283               	bcf	3,5	;RP0=0, select bank0
  3006     014E  1303               	bcf	3,6	;RP1=0, select bank0
  3007     014F  0821               	movf	?__Umul8_16+1,w
  3008     0150  00C7               	movwf	___flmul@temp+1
  3009     0151  0820               	movf	?__Umul8_16,w
  3010     0152  00C6               	movwf	___flmul@temp
  3011     0153                     l1768:
  3012     0153  0846               	movf	___flmul@temp,w
  3013     0154  00B6               	movwf	??___flmul
  3014     0155  0847               	movf	___flmul@temp+1,w
  3015     0156  00B7               	movwf	??___flmul+1
  3016     0157  01B8               	clrf	??___flmul+2
  3017     0158  01B9               	clrf	??___flmul+3
  3018     0159  0836               	movf	??___flmul,w
  3019     015A  07BC               	addwf	___flmul@grs,f
  3020     015B  0837               	movf	??___flmul+1,w
  3021     015C  1103               	clrz
  3022     015D  1803               	skipnc
  3023     015E  3E01               	addlw	1
  3024     015F  1903               	skipnz
  3025     0160  2962               	goto	u1961
  3026     0161  07BD               	addwf	___flmul@grs+1,f
  3027     0162                     u1961:
  3028     0162  0838               	movf	??___flmul+2,w
  3029     0163  1103               	clrz
  3030     0164  1803               	skipnc
  3031     0165  3E01               	addlw	1
  3032     0166  1903               	skipnz
  3033     0167  2969               	goto	u1962
  3034     0168  07BE               	addwf	___flmul@grs+2,f
  3035     0169                     u1962:
  3036     0169  0839               	movf	??___flmul+3,w
  3037     016A  1103               	clrz
  3038     016B  1803               	skipnc
  3039     016C  3E01               	addlw	1
  3040     016D  1903               	skipnz
  3041     016E  2970               	goto	u1963
  3042     016F  07BF               	addwf	___flmul@grs+3,f
  3043     0170                     u1963:
  3044     0170                     l1770:
  3045     0170  082E               	movf	___flmul@b,w
  3046     0171  00A0               	movwf	__Umul8_16@multiplicand
  3047     0172  0833               	movf	___flmul@a+1,w
  3048     0173  120A  158A  266E  120A  118A  	fcall	__Umul8_16
  3049     0178  1283               	bcf	3,5	;RP0=0, select bank0
  3050     0179  1303               	bcf	3,6	;RP1=0, select bank0
  3051     017A  0821               	movf	?__Umul8_16+1,w
  3052     017B  00C7               	movwf	___flmul@temp+1
  3053     017C  0820               	movf	?__Umul8_16,w
  3054     017D  00C6               	movwf	___flmul@temp
  3055     017E                     l1772:
  3056     017E  0846               	movf	___flmul@temp,w
  3057     017F  00B6               	movwf	??___flmul
  3058     0180  0847               	movf	___flmul@temp+1,w
  3059     0181  00B7               	movwf	??___flmul+1
  3060     0182  01B8               	clrf	??___flmul+2
  3061     0183  01B9               	clrf	??___flmul+3
  3062     0184  0836               	movf	??___flmul,w
  3063     0185  07BC               	addwf	___flmul@grs,f
  3064     0186  0837               	movf	??___flmul+1,w
  3065     0187  1103               	clrz
  3066     0188  1803               	skipnc
  3067     0189  3E01               	addlw	1
  3068     018A  1903               	skipnz
  3069     018B  298D               	goto	u1971
  3070     018C  07BD               	addwf	___flmul@grs+1,f
  3071     018D                     u1971:
  3072     018D  0838               	movf	??___flmul+2,w
  3073     018E  1103               	clrz
  3074     018F  1803               	skipnc
  3075     0190  3E01               	addlw	1
  3076     0191  1903               	skipnz
  3077     0192  2994               	goto	u1972
  3078     0193  07BE               	addwf	___flmul@grs+2,f
  3079     0194                     u1972:
  3080     0194  0839               	movf	??___flmul+3,w
  3081     0195  1103               	clrz
  3082     0196  1803               	skipnc
  3083     0197  3E01               	addlw	1
  3084     0198  1903               	skipnz
  3085     0199  299B               	goto	u1973
  3086     019A  07BF               	addwf	___flmul@grs+3,f
  3087     019B                     u1973:
  3088     019B                     l1774:
  3089     019B  3008               	movlw	8
  3090     019C  00B6               	movwf	??___flmul
  3091     019D                     u1985:
  3092     019D  1003               	clrc
  3093     019E  0DBC               	rlf	___flmul@grs,f
  3094     019F  0DBD               	rlf	___flmul@grs+1,f
  3095     01A0  0DBE               	rlf	___flmul@grs+2,f
  3096     01A1  0DBF               	rlf	___flmul@grs+3,f
  3097     01A2  0BB6               	decfsz	??___flmul,f
  3098     01A3  299D               	goto	u1985
  3099     01A4  082E               	movf	___flmul@b,w
  3100     01A5  00A0               	movwf	__Umul8_16@multiplicand
  3101     01A6  0832               	movf	___flmul@a,w
  3102     01A7  120A  158A  266E  120A  118A  	fcall	__Umul8_16
  3103     01AC  1283               	bcf	3,5	;RP0=0, select bank0
  3104     01AD  1303               	bcf	3,6	;RP1=0, select bank0
  3105     01AE  0821               	movf	?__Umul8_16+1,w
  3106     01AF  00C7               	movwf	___flmul@temp+1
  3107     01B0  0820               	movf	?__Umul8_16,w
  3108     01B1  00C6               	movwf	___flmul@temp
  3109     01B2                     l1776:
  3110     01B2  0846               	movf	___flmul@temp,w
  3111     01B3  00B6               	movwf	??___flmul
  3112     01B4  0847               	movf	___flmul@temp+1,w
  3113     01B5  00B7               	movwf	??___flmul+1
  3114     01B6  01B8               	clrf	??___flmul+2
  3115     01B7  01B9               	clrf	??___flmul+3
  3116     01B8  0836               	movf	??___flmul,w
  3117     01B9  07BC               	addwf	___flmul@grs,f
  3118     01BA  0837               	movf	??___flmul+1,w
  3119     01BB  1103               	clrz
  3120     01BC  1803               	skipnc
  3121     01BD  3E01               	addlw	1
  3122     01BE  1903               	skipnz
  3123     01BF  29C1               	goto	u1991
  3124     01C0  07BD               	addwf	___flmul@grs+1,f
  3125     01C1                     u1991:
  3126     01C1  0838               	movf	??___flmul+2,w
  3127     01C2  1103               	clrz
  3128     01C3  1803               	skipnc
  3129     01C4  3E01               	addlw	1
  3130     01C5  1903               	skipnz
  3131     01C6  29C8               	goto	u1992
  3132     01C7  07BE               	addwf	___flmul@grs+2,f
  3133     01C8                     u1992:
  3134     01C8  0839               	movf	??___flmul+3,w
  3135     01C9  1103               	clrz
  3136     01CA  1803               	skipnc
  3137     01CB  3E01               	addlw	1
  3138     01CC  1903               	skipnz
  3139     01CD  29CF               	goto	u1993
  3140     01CE  07BF               	addwf	___flmul@grs+3,f
  3141     01CF                     u1993:
  3142     01CF                     l1778:
  3143     01CF  082F               	movf	___flmul@b+1,w
  3144     01D0  00A0               	movwf	__Umul8_16@multiplicand
  3145     01D1  0834               	movf	___flmul@a+2,w
  3146     01D2  120A  158A  266E  120A  118A  	fcall	__Umul8_16
  3147     01D7  1283               	bcf	3,5	;RP0=0, select bank0
  3148     01D8  1303               	bcf	3,6	;RP1=0, select bank0
  3149     01D9  0821               	movf	?__Umul8_16+1,w
  3150     01DA  00C7               	movwf	___flmul@temp+1
  3151     01DB  0820               	movf	?__Umul8_16,w
  3152     01DC  00C6               	movwf	___flmul@temp
  3153     01DD  0846               	movf	___flmul@temp,w
  3154     01DE  00B6               	movwf	??___flmul
  3155     01DF  0847               	movf	___flmul@temp+1,w
  3156     01E0  00B7               	movwf	??___flmul+1
  3157     01E1  01B8               	clrf	??___flmul+2
  3158     01E2  01B9               	clrf	??___flmul+3
  3159     01E3  0836               	movf	??___flmul,w
  3160     01E4  07C2               	addwf	___flmul@prod,f
  3161     01E5  0837               	movf	??___flmul+1,w
  3162     01E6  1103               	clrz
  3163     01E7  1803               	skipnc
  3164     01E8  3E01               	addlw	1
  3165     01E9  1903               	skipnz
  3166     01EA  29EC               	goto	u2001
  3167     01EB  07C3               	addwf	___flmul@prod+1,f
  3168     01EC                     u2001:
  3169     01EC  0838               	movf	??___flmul+2,w
  3170     01ED  1103               	clrz
  3171     01EE  1803               	skipnc
  3172     01EF  3E01               	addlw	1
  3173     01F0  1903               	skipnz
  3174     01F1  29F3               	goto	u2002
  3175     01F2  07C4               	addwf	___flmul@prod+2,f
  3176     01F3                     u2002:
  3177     01F3  0839               	movf	??___flmul+3,w
  3178     01F4  1103               	clrz
  3179     01F5  1803               	skipnc
  3180     01F6  3E01               	addlw	1
  3181     01F7  1903               	skipnz
  3182     01F8  29FA               	goto	u2003
  3183     01F9  07C5               	addwf	___flmul@prod+3,f
  3184     01FA                     u2003:
  3185     01FA                     l1780:
  3186     01FA  0830               	movf	___flmul@b+2,w
  3187     01FB  00A0               	movwf	__Umul8_16@multiplicand
  3188     01FC  0833               	movf	___flmul@a+1,w
  3189     01FD  120A  158A  266E  120A  118A  	fcall	__Umul8_16
  3190     0202  1283               	bcf	3,5	;RP0=0, select bank0
  3191     0203  1303               	bcf	3,6	;RP1=0, select bank0
  3192     0204  0821               	movf	?__Umul8_16+1,w
  3193     0205  00C7               	movwf	___flmul@temp+1
  3194     0206  0820               	movf	?__Umul8_16,w
  3195     0207  00C6               	movwf	___flmul@temp
  3196     0208                     l1782:
  3197     0208  0846               	movf	___flmul@temp,w
  3198     0209  00B6               	movwf	??___flmul
  3199     020A  0847               	movf	___flmul@temp+1,w
  3200     020B  00B7               	movwf	??___flmul+1
  3201     020C  01B8               	clrf	??___flmul+2
  3202     020D  01B9               	clrf	??___flmul+3
  3203     020E  0836               	movf	??___flmul,w
  3204     020F  07C2               	addwf	___flmul@prod,f
  3205     0210  0837               	movf	??___flmul+1,w
  3206     0211  1103               	clrz
  3207     0212  1803               	skipnc
  3208     0213  3E01               	addlw	1
  3209     0214  1903               	skipnz
  3210     0215  2A17               	goto	u2011
  3211     0216  07C3               	addwf	___flmul@prod+1,f
  3212     0217                     u2011:
  3213     0217  0838               	movf	??___flmul+2,w
  3214     0218  1103               	clrz
  3215     0219  1803               	skipnc
  3216     021A  3E01               	addlw	1
  3217     021B  1903               	skipnz
  3218     021C  2A1E               	goto	u2012
  3219     021D  07C4               	addwf	___flmul@prod+2,f
  3220     021E                     u2012:
  3221     021E  0839               	movf	??___flmul+3,w
  3222     021F  1103               	clrz
  3223     0220  1803               	skipnc
  3224     0221  3E01               	addlw	1
  3225     0222  1903               	skipnz
  3226     0223  2A25               	goto	u2013
  3227     0224  07C5               	addwf	___flmul@prod+3,f
  3228     0225                     u2013:
  3229     0225  0830               	movf	___flmul@b+2,w
  3230     0226  00A0               	movwf	__Umul8_16@multiplicand
  3231     0227  0834               	movf	___flmul@a+2,w
  3232     0228  120A  158A  266E  120A  118A  	fcall	__Umul8_16
  3233     022D  1283               	bcf	3,5	;RP0=0, select bank0
  3234     022E  1303               	bcf	3,6	;RP1=0, select bank0
  3235     022F  0821               	movf	?__Umul8_16+1,w
  3236     0230  00C7               	movwf	___flmul@temp+1
  3237     0231  0820               	movf	?__Umul8_16,w
  3238     0232  00C6               	movwf	___flmul@temp
  3239     0233                     l1784:
  3240     0233  0846               	movf	___flmul@temp,w
  3241     0234  00B6               	movwf	??___flmul
  3242     0235  0847               	movf	___flmul@temp+1,w
  3243     0236  00B7               	movwf	??___flmul+1
  3244     0237  01B8               	clrf	??___flmul+2
  3245     0238  01B9               	clrf	??___flmul+3
  3246     0239  3008               	movlw	8
  3247     023A                     u2025:
  3248     023A  1003               	clrc
  3249     023B  0DB6               	rlf	??___flmul,f
  3250     023C  0DB7               	rlf	??___flmul+1,f
  3251     023D  0DB8               	rlf	??___flmul+2,f
  3252     023E  0DB9               	rlf	??___flmul+3,f
  3253     023F                     u2020:
  3254     023F  3EFF               	addlw	-1
  3255     0240  1D03               	skipz
  3256     0241  2A3A               	goto	u2025
  3257     0242  0836               	movf	??___flmul,w
  3258     0243  07C2               	addwf	___flmul@prod,f
  3259     0244  0837               	movf	??___flmul+1,w
  3260     0245  1103               	clrz
  3261     0246  1803               	skipnc
  3262     0247  3E01               	addlw	1
  3263     0248  1903               	skipnz
  3264     0249  2A4B               	goto	u2031
  3265     024A  07C3               	addwf	___flmul@prod+1,f
  3266     024B                     u2031:
  3267     024B  0838               	movf	??___flmul+2,w
  3268     024C  1103               	clrz
  3269     024D  1803               	skipnc
  3270     024E  3E01               	addlw	1
  3271     024F  1903               	skipnz
  3272     0250  2A52               	goto	u2032
  3273     0251  07C4               	addwf	___flmul@prod+2,f
  3274     0252                     u2032:
  3275     0252  0839               	movf	??___flmul+3,w
  3276     0253  1103               	clrz
  3277     0254  1803               	skipnc
  3278     0255  3E01               	addlw	1
  3279     0256  1903               	skipnz
  3280     0257  2A59               	goto	u2033
  3281     0258  07C5               	addwf	___flmul@prod+3,f
  3282     0259                     u2033:
  3283     0259                     l1786:
  3284     0259  083C               	movf	___flmul@grs,w
  3285     025A  00B6               	movwf	??___flmul
  3286     025B  083D               	movf	___flmul@grs+1,w
  3287     025C  00B7               	movwf	??___flmul+1
  3288     025D  083E               	movf	___flmul@grs+2,w
  3289     025E  00B8               	movwf	??___flmul+2
  3290     025F  083F               	movf	___flmul@grs+3,w
  3291     0260  00B9               	movwf	??___flmul+3
  3292     0261  3018               	movlw	24
  3293     0262                     u2045:
  3294     0262  1003               	clrc
  3295     0263  0CB9               	rrf	??___flmul+3,f
  3296     0264  0CB8               	rrf	??___flmul+2,f
  3297     0265  0CB7               	rrf	??___flmul+1,f
  3298     0266  0CB6               	rrf	??___flmul,f
  3299     0267                     u2040:
  3300     0267  3EFF               	addlw	-1
  3301     0268  1D03               	skipz
  3302     0269  2A62               	goto	u2045
  3303     026A  0836               	movf	??___flmul,w
  3304     026B  07C2               	addwf	___flmul@prod,f
  3305     026C  0837               	movf	??___flmul+1,w
  3306     026D  1103               	clrz
  3307     026E  1803               	skipnc
  3308     026F  3E01               	addlw	1
  3309     0270  1903               	skipnz
  3310     0271  2A73               	goto	u2051
  3311     0272  07C3               	addwf	___flmul@prod+1,f
  3312     0273                     u2051:
  3313     0273  0838               	movf	??___flmul+2,w
  3314     0274  1103               	clrz
  3315     0275  1803               	skipnc
  3316     0276  3E01               	addlw	1
  3317     0277  1903               	skipnz
  3318     0278  2A7A               	goto	u2052
  3319     0279  07C4               	addwf	___flmul@prod+2,f
  3320     027A                     u2052:
  3321     027A  0839               	movf	??___flmul+3,w
  3322     027B  1103               	clrz
  3323     027C  1803               	skipnc
  3324     027D  3E01               	addlw	1
  3325     027E  1903               	skipnz
  3326     027F  2A81               	goto	u2053
  3327     0280  07C5               	addwf	___flmul@prod+3,f
  3328     0281                     u2053:
  3329     0281                     l1788:
  3330     0281  3008               	movlw	8
  3331     0282  00B6               	movwf	??___flmul
  3332     0283                     u2065:
  3333     0283  1003               	clrc
  3334     0284  0DBC               	rlf	___flmul@grs,f
  3335     0285  0DBD               	rlf	___flmul@grs+1,f
  3336     0286  0DBE               	rlf	___flmul@grs+2,f
  3337     0287  0DBF               	rlf	___flmul@grs+3,f
  3338     0288  0BB6               	decfsz	??___flmul,f
  3339     0289  2A83               	goto	u2065
  3340     028A                     l1790:
  3341     028A  0841               	movf	___flmul@bexp,w
  3342     028B  0740               	addwf	___flmul@aexp,w
  3343     028C  00B6               	movwf	??___flmul
  3344     028D  01B7               	clrf	??___flmul+1
  3345     028E  0DB7               	rlf	??___flmul+1,f
  3346     028F  0836               	movf	??___flmul,w
  3347     0290  3E82               	addlw	130
  3348     0291  00C6               	movwf	___flmul@temp
  3349     0292  0837               	movf	??___flmul+1,w
  3350     0293  1803               	skipnc
  3351     0294  3E01               	addlw	1
  3352     0295  3EFF               	addlw	255
  3353     0296  00C7               	movwf	___flmul@temp+1
  3354     0297  2AB5               	goto	l1802
  3355     0298                     l1792:
  3356     0298  3001               	movlw	1
  3357     0299  00B6               	movwf	??___flmul
  3358     029A                     u2075:
  3359     029A  1003               	clrc
  3360     029B  0DC2               	rlf	___flmul@prod,f
  3361     029C  0DC3               	rlf	___flmul@prod+1,f
  3362     029D  0DC4               	rlf	___flmul@prod+2,f
  3363     029E  0DC5               	rlf	___flmul@prod+3,f
  3364     029F  0BB6               	decfsz	??___flmul,f
  3365     02A0  2A9A               	goto	u2075
  3366     02A1                     l1794:
  3367     02A1  1FBF               	btfss	___flmul@grs+3,7
  3368     02A2  2AA4               	goto	u2081
  3369     02A3  2AA5               	goto	u2080
  3370     02A4                     u2081:
  3371     02A4  2AA6               	goto	l1798
  3372     02A5                     u2080:
  3373     02A5                     l1796:
  3374     02A5  1442               	bsf	___flmul@prod,0
  3375     02A6                     l1798:
  3376     02A6  3001               	movlw	1
  3377     02A7  00B6               	movwf	??___flmul
  3378     02A8                     u2095:
  3379     02A8  1003               	clrc
  3380     02A9  0DBC               	rlf	___flmul@grs,f
  3381     02AA  0DBD               	rlf	___flmul@grs+1,f
  3382     02AB  0DBE               	rlf	___flmul@grs+2,f
  3383     02AC  0DBF               	rlf	___flmul@grs+3,f
  3384     02AD  0BB6               	decfsz	??___flmul,f
  3385     02AE  2AA8               	goto	u2095
  3386     02AF                     l1800:
  3387     02AF  30FF               	movlw	255
  3388     02B0  07C6               	addwf	___flmul@temp,f
  3389     02B1  1803               	skipnc
  3390     02B2  0AC7               	incf	___flmul@temp+1,f
  3391     02B3  30FF               	movlw	255
  3392     02B4  07C7               	addwf	___flmul@temp+1,f
  3393     02B5                     l1802:
  3394     02B5  1FC4               	btfss	___flmul@prod+2,7
  3395     02B6  2AB8               	goto	u2101
  3396     02B7  2AB9               	goto	u2100
  3397     02B8                     u2101:
  3398     02B8  2A98               	goto	l1792
  3399     02B9                     u2100:
  3400     02B9                     l1804:
  3401     02B9  01C0               	clrf	___flmul@aexp
  3402     02BA                     l1806:
  3403     02BA  1FBF               	btfss	___flmul@grs+3,7
  3404     02BB  2ABD               	goto	u2111
  3405     02BC  2ABE               	goto	u2110
  3406     02BD                     u2111:
  3407     02BD  2ADA               	goto	l1814
  3408     02BE                     u2110:
  3409     02BE                     l1808:
  3410     02BE  30FF               	movlw	255
  3411     02BF  053C               	andwf	___flmul@grs,w
  3412     02C0  00B6               	movwf	??___flmul
  3413     02C1  30FF               	movlw	255
  3414     02C2  053D               	andwf	___flmul@grs+1,w
  3415     02C3  00B7               	movwf	??___flmul+1
  3416     02C4  30FF               	movlw	255
  3417     02C5  053E               	andwf	___flmul@grs+2,w
  3418     02C6  00B8               	movwf	??___flmul+2
  3419     02C7  307F               	movlw	127
  3420     02C8  053F               	andwf	___flmul@grs+3,w
  3421     02C9  00B9               	movwf	??___flmul+3
  3422     02CA  0839               	movf	??___flmul+3,w
  3423     02CB  0438               	iorwf	??___flmul+2,w
  3424     02CC  0437               	iorwf	??___flmul+1,w
  3425     02CD  0436               	iorwf	??___flmul,w
  3426     02CE  1903               	skipnz
  3427     02CF  2AD1               	goto	u2121
  3428     02D0  2AD2               	goto	u2120
  3429     02D1                     u2121:
  3430     02D1  2AD5               	goto	l689
  3431     02D2                     u2120:
  3432     02D2                     l1810:
  3433     02D2  01C0               	clrf	___flmul@aexp
  3434     02D3  0AC0               	incf	___flmul@aexp,f
  3435     02D4  2ADA               	goto	l1814
  3436     02D5                     l689:
  3437     02D5  1C42               	btfss	___flmul@prod,0
  3438     02D6  2AD8               	goto	u2131
  3439     02D7  2AD9               	goto	u2130
  3440     02D8                     u2131:
  3441     02D8  2ADA               	goto	l1814
  3442     02D9                     u2130:
  3443     02D9  2AD2               	goto	l1810
  3444     02DA                     l1814:
  3445     02DA  0840               	movf	___flmul@aexp,w
  3446     02DB  1903               	btfsc	3,2
  3447     02DC  2ADE               	goto	u2141
  3448     02DD  2ADF               	goto	u2140
  3449     02DE                     u2141:
  3450     02DE  2B10               	goto	l1824
  3451     02DF                     u2140:
  3452     02DF                     l1816:
  3453     02DF  3001               	movlw	1
  3454     02E0  07C2               	addwf	___flmul@prod,f
  3455     02E1  3000               	movlw	0
  3456     02E2  1803               	skipnc
  3457     02E3  3001               	movlw	1
  3458     02E4  07C3               	addwf	___flmul@prod+1,f
  3459     02E5  3000               	movlw	0
  3460     02E6  1803               	skipnc
  3461     02E7  3001               	movlw	1
  3462     02E8  07C4               	addwf	___flmul@prod+2,f
  3463     02E9  3000               	movlw	0
  3464     02EA  1803               	skipnc
  3465     02EB  3001               	movlw	1
  3466     02EC  07C5               	addwf	___flmul@prod+3,f
  3467     02ED                     l1818:
  3468     02ED  1C45               	btfss	___flmul@prod+3,0
  3469     02EE  2AF0               	goto	u2151
  3470     02EF  2AF1               	goto	u2150
  3471     02F0                     u2151:
  3472     02F0  2B10               	goto	l1824
  3473     02F1                     u2150:
  3474     02F1                     l1820:
  3475     02F1  0842               	movf	___flmul@prod,w
  3476     02F2  00B6               	movwf	??___flmul
  3477     02F3  0843               	movf	___flmul@prod+1,w
  3478     02F4  00B7               	movwf	??___flmul+1
  3479     02F5  0844               	movf	___flmul@prod+2,w
  3480     02F6  00B8               	movwf	??___flmul+2
  3481     02F7  0845               	movf	___flmul@prod+3,w
  3482     02F8  00B9               	movwf	??___flmul+3
  3483     02F9  3001               	movlw	1
  3484     02FA  00BA               	movwf	??___flmul+4
  3485     02FB                     u2165:
  3486     02FB  0D39               	rlf	??___flmul+3,w
  3487     02FC  0CB9               	rrf	??___flmul+3,f
  3488     02FD  0CB8               	rrf	??___flmul+2,f
  3489     02FE  0CB7               	rrf	??___flmul+1,f
  3490     02FF  0CB6               	rrf	??___flmul,f
  3491     0300                     u2160:
  3492     0300  0BBA               	decfsz	??___flmul+4,f
  3493     0301  2AFB               	goto	u2165
  3494     0302  0839               	movf	??___flmul+3,w
  3495     0303  00C5               	movwf	___flmul@prod+3
  3496     0304  0838               	movf	??___flmul+2,w
  3497     0305  00C4               	movwf	___flmul@prod+2
  3498     0306  0837               	movf	??___flmul+1,w
  3499     0307  00C3               	movwf	___flmul@prod+1
  3500     0308  0836               	movf	??___flmul,w
  3501     0309  00C2               	movwf	___flmul@prod
  3502     030A                     l1822:
  3503     030A  3001               	movlw	1
  3504     030B  07C6               	addwf	___flmul@temp,f
  3505     030C  1803               	skipnc
  3506     030D  0AC7               	incf	___flmul@temp+1,f
  3507     030E  3000               	movlw	0
  3508     030F  07C7               	addwf	___flmul@temp+1,f
  3509     0310                     l1824:
  3510     0310  0847               	movf	___flmul@temp+1,w
  3511     0311  3A80               	xorlw	128
  3512     0312  00FF               	movwf	btemp+1
  3513     0313  3080               	movlw	128
  3514     0314  027F               	subwf	btemp+1,w
  3515     0315  1D03               	skipz
  3516     0316  2B19               	goto	u2175
  3517     0317  30FF               	movlw	255
  3518     0318  0246               	subwf	___flmul@temp,w
  3519     0319                     u2175:
  3520     0319  1C03               	skipc
  3521     031A  2B1C               	goto	u2171
  3522     031B  2B1D               	goto	u2170
  3523     031C                     u2171:
  3524     031C  2B28               	goto	l1828
  3525     031D                     u2170:
  3526     031D                     l1826:
  3527     031D  307F               	movlw	127
  3528     031E  1283               	bcf	3,5	;RP0=0, select bank0
  3529     031F  1303               	bcf	3,6	;RP1=0, select bank0
  3530     0320  00C5               	movwf	___flmul@prod+3
  3531     0321  3080               	movlw	128
  3532     0322  00C4               	movwf	___flmul@prod+2
  3533     0323  3000               	movlw	0
  3534     0324  00C3               	movwf	___flmul@prod+1
  3535     0325  3000               	movlw	0
  3536     0326  00C2               	movwf	___flmul@prod
  3537     0327  2B59               	goto	l695
  3538     0328                     l1828:
  3539     0328  1283               	bcf	3,5	;RP0=0, select bank0
  3540     0329  1303               	bcf	3,6	;RP1=0, select bank0
  3541     032A  0847               	movf	___flmul@temp+1,w
  3542     032B  3A80               	xorlw	128
  3543     032C  00FF               	movwf	btemp+1
  3544     032D  3080               	movlw	128
  3545     032E  027F               	subwf	btemp+1,w
  3546     032F  1D03               	skipz
  3547     0330  2B33               	goto	u2185
  3548     0331  3001               	movlw	1
  3549     0332  0246               	subwf	___flmul@temp,w
  3550     0333                     u2185:
  3551     0333  1803               	skipnc
  3552     0334  2B36               	goto	u2181
  3553     0335  2B37               	goto	u2180
  3554     0336                     u2181:
  3555     0336  2B43               	goto	l1834
  3556     0337                     u2180:
  3557     0337                     l1830:
  3558     0337  3000               	movlw	0
  3559     0338  1283               	bcf	3,5	;RP0=0, select bank0
  3560     0339  1303               	bcf	3,6	;RP1=0, select bank0
  3561     033A  00C5               	movwf	___flmul@prod+3
  3562     033B  3000               	movlw	0
  3563     033C  00C4               	movwf	___flmul@prod+2
  3564     033D  3000               	movlw	0
  3565     033E  00C3               	movwf	___flmul@prod+1
  3566     033F  3000               	movlw	0
  3567     0340  00C2               	movwf	___flmul@prod
  3568     0341                     l1832:
  3569     0341  01BB               	clrf	___flmul@sign
  3570     0342  2B59               	goto	l695
  3571     0343                     l1834:
  3572     0343  1283               	bcf	3,5	;RP0=0, select bank0
  3573     0344  1303               	bcf	3,6	;RP1=0, select bank0
  3574     0345  0846               	movf	___flmul@temp,w
  3575     0346  00C1               	movwf	___flmul@bexp
  3576     0347  30FF               	movlw	255
  3577     0348  05C2               	andwf	___flmul@prod,f
  3578     0349  30FF               	movlw	255
  3579     034A  05C3               	andwf	___flmul@prod+1,f
  3580     034B  307F               	movlw	127
  3581     034C  05C4               	andwf	___flmul@prod+2,f
  3582     034D  3000               	movlw	0
  3583     034E  05C5               	andwf	___flmul@prod+3,f
  3584     034F                     l1836:
  3585     034F  1C41               	btfss	___flmul@bexp,0
  3586     0350  2B52               	goto	u2191
  3587     0351  2B53               	goto	u2190
  3588     0352                     u2191:
  3589     0352  2B54               	goto	l1840
  3590     0353                     u2190:
  3591     0353                     l1838:
  3592     0353  17C4               	bsf	___flmul@prod+2,7
  3593     0354                     l1840:
  3594     0354  0841               	movf	___flmul@bexp,w
  3595     0355  00B6               	movwf	??___flmul
  3596     0356  1003               	clrc
  3597     0357  0C36               	rrf	??___flmul,w
  3598     0358  00C5               	movwf	___flmul@prod+3
  3599     0359                     l695:
  3600     0359  083B               	movf	___flmul@sign,w
  3601     035A  00B6               	movwf	??___flmul
  3602     035B  0836               	movf	??___flmul,w
  3603     035C  04C5               	iorwf	___flmul@prod+3,f
  3604     035D                     l1842:
  3605     035D  0845               	movf	___flmul@prod+3,w
  3606     035E  00B1               	movwf	?___flmul+3
  3607     035F  0844               	movf	___flmul@prod+2,w
  3608     0360  00B0               	movwf	?___flmul+2
  3609     0361  0843               	movf	___flmul@prod+1,w
  3610     0362  00AF               	movwf	?___flmul+1
  3611     0363  0842               	movf	___flmul@prod,w
  3612     0364  00AE               	movwf	?___flmul
  3613     0365                     l683:
  3614     0365  0008               	return
  3615     0366                     __end_of___flmul:
  3616                           
  3617                           	psect	text13
  3618     0E6E                     __ptext13:	
  3619 ;; *************** function __Umul8_16 *****************
  3620 ;; Defined at:
  3621 ;;		line 4 in file "E:\Program Files\Microchip\xc8\v2.40\pic\sources\c90\common\Umul8_16.c"
  3622 ;; Parameters:    Size  Location     Type
  3623 ;;  multiplier      1    wreg     unsigned char 
  3624 ;;  multiplicand    1    0[BANK0 ] unsigned char 
  3625 ;; Auto vars:     Size  Location     Type
  3626 ;;  multiplier      1    8[BANK0 ] unsigned char 
  3627 ;;  word_mpld       2    6[BANK0 ] unsigned int 
  3628 ;;  product         2    4[BANK0 ] unsigned int 
  3629 ;; Return value:  Size  Location     Type
  3630 ;;                  2    0[BANK0 ] unsigned int 
  3631 ;; Registers used:
  3632 ;;		wreg, status,2, status,0
  3633 ;; Tracked objects:
  3634 ;;		On entry : 0/0
  3635 ;;		On exit  : 0/0
  3636 ;;		Unchanged: 0/0
  3637 ;; Data sizes:     COMMON   BANK0   BANK1   BANK3   BANK2
  3638 ;;      Params:         0       2       0       0       0
  3639 ;;      Locals:         0       5       0       0       0
  3640 ;;      Temps:          0       2       0       0       0
  3641 ;;      Totals:         0       9       0       0       0
  3642 ;;Total ram usage:        9 bytes
  3643 ;; Hardware stack levels used: 1
  3644 ;; Hardware stack levels required when called: 2
  3645 ;; This function calls:
  3646 ;;		Nothing
  3647 ;; This function is called by:
  3648 ;;		___flmul
  3649 ;; This function uses a non-reentrant model
  3650 ;;
  3651                           
  3652     0E6E                     __Umul8_16:	
  3653                           ;psect for function __Umul8_16
  3654                           
  3655                           
  3656                           ;incstack = 0
  3657                           ; Regs used in __Umul8_16: [wreg+status,2+status,0]
  3658                           ;__Umul8_16@multiplier stored from wreg
  3659     0E6E  1283               	bcf	3,5	;RP0=0, select bank0
  3660     0E6F  1303               	bcf	3,6	;RP1=0, select bank0
  3661     0E70  00A8               	movwf	__Umul8_16@multiplier
  3662     0E71                     l1476:
  3663     0E71  01A4               	clrf	__Umul8_16@product
  3664     0E72  01A5               	clrf	__Umul8_16@product+1
  3665     0E73                     l1478:
  3666     0E73  0820               	movf	__Umul8_16@multiplicand,w
  3667     0E74  00A2               	movwf	??__Umul8_16
  3668     0E75  01A3               	clrf	??__Umul8_16+1
  3669     0E76  0822               	movf	??__Umul8_16,w
  3670     0E77  00A6               	movwf	__Umul8_16@word_mpld
  3671     0E78  0823               	movf	??__Umul8_16+1,w
  3672     0E79  00A7               	movwf	__Umul8_16@word_mpld+1
  3673     0E7A                     l1480:
  3674     0E7A  1C28               	btfss	__Umul8_16@multiplier,0
  3675     0E7B  2E7D               	goto	u1371
  3676     0E7C  2E7E               	goto	u1370
  3677     0E7D                     u1371:
  3678     0E7D  2E84               	goto	l702
  3679     0E7E                     u1370:
  3680     0E7E                     l1482:
  3681     0E7E  0826               	movf	__Umul8_16@word_mpld,w
  3682     0E7F  07A4               	addwf	__Umul8_16@product,f
  3683     0E80  1803               	skipnc
  3684     0E81  0AA5               	incf	__Umul8_16@product+1,f
  3685     0E82  0827               	movf	__Umul8_16@word_mpld+1,w
  3686     0E83  07A5               	addwf	__Umul8_16@product+1,f
  3687     0E84                     l702:
  3688     0E84  3001               	movlw	1
  3689     0E85                     u1385:
  3690     0E85  1003               	clrc
  3691     0E86  0DA6               	rlf	__Umul8_16@word_mpld,f
  3692     0E87  0DA7               	rlf	__Umul8_16@word_mpld+1,f
  3693     0E88  3EFF               	addlw	-1
  3694     0E89  1D03               	skipz
  3695     0E8A  2E85               	goto	u1385
  3696     0E8B  1003               	clrc
  3697     0E8C  0CA8               	rrf	__Umul8_16@multiplier,f
  3698     0E8D                     l1484:
  3699     0E8D  0828               	movf	__Umul8_16@multiplier,w
  3700     0E8E  1D03               	btfss	3,2
  3701     0E8F  2E91               	goto	u1391
  3702     0E90  2E92               	goto	u1390
  3703     0E91                     u1391:
  3704     0E91  2E7A               	goto	l1480
  3705     0E92                     u1390:
  3706     0E92                     l1486:
  3707     0E92  0825               	movf	__Umul8_16@product+1,w
  3708     0E93  00A1               	movwf	?__Umul8_16+1
  3709     0E94  0824               	movf	__Umul8_16@product,w
  3710     0E95  00A0               	movwf	?__Umul8_16
  3711     0E96                     l704:
  3712     0E96  0008               	return
  3713     0E97                     __end_of__Umul8_16:
  3714                           
  3715                           	psect	text14
  3716     0366                     __ptext14:	
  3717 ;; *************** function ___fldiv *****************
  3718 ;; Defined at:
  3719 ;;		line 8 in file "E:\Program Files\Microchip\xc8\v2.40\pic\sources\c90\common\sprcdiv.c"
  3720 ;; Parameters:    Size  Location     Type
  3721 ;;  a               4   40[BANK0 ] unsigned int 
  3722 ;;  b               4   44[BANK0 ] unsigned int 
  3723 ;; Auto vars:     Size  Location     Type
  3724 ;;  grs             4   60[BANK0 ] unsigned long 
  3725 ;;  rem             4   53[BANK0 ] unsigned long 
  3726 ;;  new_exp         2   58[BANK0 ] int 
  3727 ;;  aexp            1   65[BANK0 ] unsigned char 
  3728 ;;  bexp            1   64[BANK0 ] unsigned char 
  3729 ;;  sign            1   57[BANK0 ] unsigned char 
  3730 ;; Return value:  Size  Location     Type
  3731 ;;                  4   40[BANK0 ] unsigned char 
  3732 ;; Registers used:
  3733 ;;		wreg, status,2, status,0, btemp+1
  3734 ;; Tracked objects:
  3735 ;;		On entry : 0/0
  3736 ;;		On exit  : 0/0
  3737 ;;		Unchanged: 0/0
  3738 ;; Data sizes:     COMMON   BANK0   BANK1   BANK3   BANK2
  3739 ;;      Params:         0       8       0       0       0
  3740 ;;      Locals:         0      13       0       0       0
  3741 ;;      Temps:          0       5       0       0       0
  3742 ;;      Totals:         0      26       0       0       0
  3743 ;;Total ram usage:       26 bytes
  3744 ;; Hardware stack levels used: 1
  3745 ;; Hardware stack levels required when called: 2
  3746 ;; This function calls:
  3747 ;;		Nothing
  3748 ;; This function is called by:
  3749 ;;		_main
  3750 ;;		_HCSR04_Get_Distance
  3751 ;;		_floattostr
  3752 ;; This function uses a non-reentrant model
  3753 ;;
  3754                           
  3755     0366                     ___fldiv:	
  3756                           ;psect for function ___fldiv
  3757                           
  3758     0366                     l1564:	
  3759                           ;incstack = 0
  3760                           ; Regs used in ___fldiv: [wreg+status,2+status,0+btemp+1]
  3761                           
  3762     0366  1283               	bcf	3,5	;RP0=0, select bank0
  3763     0367  1303               	bcf	3,6	;RP1=0, select bank0
  3764     0368  084F               	movf	___fldiv@b+3,w
  3765     0369  3980               	andlw	128
  3766     036A  00D9               	movwf	___fldiv@sign
  3767     036B                     l1566:
  3768     036B  084F               	movf	___fldiv@b+3,w
  3769     036C  00D0               	movwf	??___fldiv
  3770     036D  0750               	addwf	??___fldiv,w
  3771     036E  00E0               	movwf	___fldiv@bexp
  3772     036F                     l1568:
  3773     036F  1FCE               	btfss	___fldiv@b+2,7
  3774     0370  2B72               	goto	u1541
  3775     0371  2B73               	goto	u1540
  3776     0372                     u1541:
  3777     0372  2B74               	goto	l1572
  3778     0373                     u1540:
  3779     0373                     l1570:
  3780     0373  1460               	bsf	___fldiv@bexp,0
  3781     0374                     l1572:
  3782     0374  0860               	movf	___fldiv@bexp,w
  3783     0375  1903               	btfsc	3,2
  3784     0376  2B78               	goto	u1551
  3785     0377  2B79               	goto	u1550
  3786     0378                     u1551:
  3787     0378  2B89               	goto	l1582
  3788     0379                     u1550:
  3789     0379                     l1574:
  3790     0379  0A60               	incf	___fldiv@bexp,w
  3791     037A  1D03               	btfss	3,2
  3792     037B  2B7D               	goto	u1561
  3793     037C  2B7E               	goto	u1560
  3794     037D                     u1561:
  3795     037D  2B86               	goto	l1578
  3796     037E                     u1560:
  3797     037E                     l1576:
  3798     037E  3000               	movlw	0
  3799     037F  00CF               	movwf	___fldiv@b+3
  3800     0380  3000               	movlw	0
  3801     0381  00CE               	movwf	___fldiv@b+2
  3802     0382  3000               	movlw	0
  3803     0383  00CD               	movwf	___fldiv@b+1
  3804     0384  3000               	movlw	0
  3805     0385  00CC               	movwf	___fldiv@b
  3806     0386                     l1578:
  3807     0386  17CE               	bsf	___fldiv@b+2,7
  3808     0387                     l1580:
  3809     0387  01CF               	clrf	___fldiv@b+3
  3810     0388  2B91               	goto	l1584
  3811     0389                     l1582:
  3812     0389  3000               	movlw	0
  3813     038A  00CF               	movwf	___fldiv@b+3
  3814     038B  3000               	movlw	0
  3815     038C  00CE               	movwf	___fldiv@b+2
  3816     038D  3000               	movlw	0
  3817     038E  00CD               	movwf	___fldiv@b+1
  3818     038F  3000               	movlw	0
  3819     0390  00CC               	movwf	___fldiv@b
  3820     0391                     l1584:
  3821     0391  084B               	movf	___fldiv@a+3,w
  3822     0392  3980               	andlw	128
  3823     0393  00D0               	movwf	??___fldiv
  3824     0394  0850               	movf	??___fldiv,w
  3825     0395  06D9               	xorwf	___fldiv@sign,f
  3826     0396                     l1586:
  3827     0396  084B               	movf	___fldiv@a+3,w
  3828     0397  00D0               	movwf	??___fldiv
  3829     0398  0750               	addwf	??___fldiv,w
  3830     0399  00E1               	movwf	___fldiv@aexp
  3831     039A                     l1588:
  3832     039A  1FCA               	btfss	___fldiv@a+2,7
  3833     039B  2B9D               	goto	u1571
  3834     039C  2B9E               	goto	u1570
  3835     039D                     u1571:
  3836     039D  2B9F               	goto	l1592
  3837     039E                     u1570:
  3838     039E                     l1590:
  3839     039E  1461               	bsf	___fldiv@aexp,0
  3840     039F                     l1592:
  3841     039F  0861               	movf	___fldiv@aexp,w
  3842     03A0  1903               	btfsc	3,2
  3843     03A1  2BA3               	goto	u1581
  3844     03A2  2BA4               	goto	u1580
  3845     03A3                     u1581:
  3846     03A3  2BB4               	goto	l1602
  3847     03A4                     u1580:
  3848     03A4                     l1594:
  3849     03A4  0A61               	incf	___fldiv@aexp,w
  3850     03A5  1D03               	btfss	3,2
  3851     03A6  2BA8               	goto	u1591
  3852     03A7  2BA9               	goto	u1590
  3853     03A8                     u1591:
  3854     03A8  2BB1               	goto	l1598
  3855     03A9                     u1590:
  3856     03A9                     l1596:
  3857     03A9  3000               	movlw	0
  3858     03AA  00CB               	movwf	___fldiv@a+3
  3859     03AB  3000               	movlw	0
  3860     03AC  00CA               	movwf	___fldiv@a+2
  3861     03AD  3000               	movlw	0
  3862     03AE  00C9               	movwf	___fldiv@a+1
  3863     03AF  3000               	movlw	0
  3864     03B0  00C8               	movwf	___fldiv@a
  3865     03B1                     l1598:
  3866     03B1  17CA               	bsf	___fldiv@a+2,7
  3867     03B2                     l1600:
  3868     03B2  01CB               	clrf	___fldiv@a+3
  3869     03B3  2BBC               	goto	l643
  3870     03B4                     l1602:
  3871     03B4  3000               	movlw	0
  3872     03B5  00CB               	movwf	___fldiv@a+3
  3873     03B6  3000               	movlw	0
  3874     03B7  00CA               	movwf	___fldiv@a+2
  3875     03B8  3000               	movlw	0
  3876     03B9  00C9               	movwf	___fldiv@a+1
  3877     03BA  3000               	movlw	0
  3878     03BB  00C8               	movwf	___fldiv@a
  3879     03BC                     l643:
  3880     03BC  084B               	movf	___fldiv@a+3,w
  3881     03BD  044A               	iorwf	___fldiv@a+2,w
  3882     03BE  0449               	iorwf	___fldiv@a+1,w
  3883     03BF  0448               	iorwf	___fldiv@a,w
  3884     03C0  1D03               	skipz
  3885     03C1  2BC3               	goto	u1601
  3886     03C2  2BC4               	goto	u1600
  3887     03C3                     u1601:
  3888     03C3  2BDD               	goto	l1612
  3889     03C4                     u1600:
  3890     03C4                     l1604:
  3891     03C4  3000               	movlw	0
  3892     03C5  00CF               	movwf	___fldiv@b+3
  3893     03C6  3000               	movlw	0
  3894     03C7  00CE               	movwf	___fldiv@b+2
  3895     03C8  3000               	movlw	0
  3896     03C9  00CD               	movwf	___fldiv@b+1
  3897     03CA  3000               	movlw	0
  3898     03CB  00CC               	movwf	___fldiv@b
  3899     03CC  3080               	movlw	128
  3900     03CD  04CE               	iorwf	___fldiv@b+2,f
  3901     03CE  307F               	movlw	127
  3902     03CF  04CF               	iorwf	___fldiv@b+3,f
  3903     03D0                     l1606:
  3904     03D0  0859               	movf	___fldiv@sign,w
  3905     03D1  00D0               	movwf	??___fldiv
  3906     03D2  0850               	movf	??___fldiv,w
  3907     03D3  04CF               	iorwf	___fldiv@b+3,f
  3908     03D4                     l1608:
  3909     03D4  084F               	movf	___fldiv@b+3,w
  3910     03D5  00CB               	movwf	?___fldiv+3
  3911     03D6  084E               	movf	___fldiv@b+2,w
  3912     03D7  00CA               	movwf	?___fldiv+2
  3913     03D8  084D               	movf	___fldiv@b+1,w
  3914     03D9  00C9               	movwf	?___fldiv+1
  3915     03DA  084C               	movf	___fldiv@b,w
  3916     03DB  00C8               	movwf	?___fldiv
  3917     03DC  2D38               	goto	l645
  3918     03DD                     l1612:
  3919     03DD  0860               	movf	___fldiv@bexp,w
  3920     03DE  1D03               	btfss	3,2
  3921     03DF  2BE1               	goto	u1611
  3922     03E0  2BE2               	goto	u1610
  3923     03E1                     u1611:
  3924     03E1  2BEB               	goto	l1618
  3925     03E2                     u1610:
  3926     03E2                     l1614:
  3927     03E2  3000               	movlw	0
  3928     03E3  00CB               	movwf	?___fldiv+3
  3929     03E4  3000               	movlw	0
  3930     03E5  00CA               	movwf	?___fldiv+2
  3931     03E6  3000               	movlw	0
  3932     03E7  00C9               	movwf	?___fldiv+1
  3933     03E8  3000               	movlw	0
  3934     03E9  00C8               	movwf	?___fldiv
  3935     03EA  2D38               	goto	l645
  3936     03EB                     l1618:
  3937     03EB  0860               	movf	___fldiv@bexp,w
  3938     03EC  00D0               	movwf	??___fldiv
  3939     03ED  01D1               	clrf	??___fldiv+1
  3940     03EE  0851               	movf	??___fldiv+1,w
  3941     03EF  00D3               	movwf	??___fldiv+3
  3942     03F0  0861               	movf	___fldiv@aexp,w
  3943     03F1  0250               	subwf	??___fldiv,w
  3944     03F2  00D2               	movwf	??___fldiv+2
  3945     03F3  1C03               	skipc
  3946     03F4  03D3               	decf	??___fldiv+3,f
  3947     03F5  0852               	movf	??___fldiv+2,w
  3948     03F6  3E7F               	addlw	127
  3949     03F7  00DA               	movwf	___fldiv@new_exp
  3950     03F8  0853               	movf	??___fldiv+3,w
  3951     03F9  1803               	skipnc
  3952     03FA  3E01               	addlw	1
  3953     03FB  3E00               	addlw	0
  3954     03FC  00DB               	movwf	___fldiv@new_exp+1
  3955     03FD                     l1620:
  3956     03FD  084F               	movf	___fldiv@b+3,w
  3957     03FE  00D8               	movwf	___fldiv@rem+3
  3958     03FF  084E               	movf	___fldiv@b+2,w
  3959     0400  00D7               	movwf	___fldiv@rem+2
  3960     0401  084D               	movf	___fldiv@b+1,w
  3961     0402  00D6               	movwf	___fldiv@rem+1
  3962     0403  084C               	movf	___fldiv@b,w
  3963     0404  00D5               	movwf	___fldiv@rem
  3964     0405                     l1622:
  3965     0405  3000               	movlw	0
  3966     0406  00CF               	movwf	___fldiv@b+3
  3967     0407  3000               	movlw	0
  3968     0408  00CE               	movwf	___fldiv@b+2
  3969     0409  3000               	movlw	0
  3970     040A  00CD               	movwf	___fldiv@b+1
  3971     040B  3000               	movlw	0
  3972     040C  00CC               	movwf	___fldiv@b
  3973     040D                     l1624:
  3974     040D  3000               	movlw	0
  3975     040E  00DF               	movwf	___fldiv@grs+3
  3976     040F  3000               	movlw	0
  3977     0410  00DE               	movwf	___fldiv@grs+2
  3978     0411  3000               	movlw	0
  3979     0412  00DD               	movwf	___fldiv@grs+1
  3980     0413  3000               	movlw	0
  3981     0414  00DC               	movwf	___fldiv@grs
  3982     0415                     l1626:
  3983     0415  01E1               	clrf	___fldiv@aexp
  3984     0416  2C61               	goto	l1646
  3985     0417                     l1628:
  3986     0417  0861               	movf	___fldiv@aexp,w
  3987     0418  1903               	btfsc	3,2
  3988     0419  2C1B               	goto	u1621
  3989     041A  2C1C               	goto	u1620
  3990     041B                     u1621:
  3991     041B  2C3C               	goto	l1638
  3992     041C                     u1620:
  3993     041C                     l1630:
  3994     041C  3001               	movlw	1
  3995     041D  00D0               	movwf	??___fldiv
  3996     041E                     u1635:
  3997     041E  1003               	clrc
  3998     041F  0DD5               	rlf	___fldiv@rem,f
  3999     0420  0DD6               	rlf	___fldiv@rem+1,f
  4000     0421  0DD7               	rlf	___fldiv@rem+2,f
  4001     0422  0DD8               	rlf	___fldiv@rem+3,f
  4002     0423  0BD0               	decfsz	??___fldiv,f
  4003     0424  2C1E               	goto	u1635
  4004     0425  3001               	movlw	1
  4005     0426  00D0               	movwf	??___fldiv
  4006     0427                     u1645:
  4007     0427  1003               	clrc
  4008     0428  0DCC               	rlf	___fldiv@b,f
  4009     0429  0DCD               	rlf	___fldiv@b+1,f
  4010     042A  0DCE               	rlf	___fldiv@b+2,f
  4011     042B  0DCF               	rlf	___fldiv@b+3,f
  4012     042C  0BD0               	decfsz	??___fldiv,f
  4013     042D  2C27               	goto	u1645
  4014     042E                     l1632:
  4015     042E  1FDF               	btfss	___fldiv@grs+3,7
  4016     042F  2C31               	goto	u1651
  4017     0430  2C32               	goto	u1650
  4018     0431                     u1651:
  4019     0431  2C33               	goto	l1636
  4020     0432                     u1650:
  4021     0432                     l1634:
  4022     0432  144C               	bsf	___fldiv@b,0
  4023     0433                     l1636:
  4024     0433  3001               	movlw	1
  4025     0434  00D0               	movwf	??___fldiv
  4026     0435                     u1665:
  4027     0435  1003               	clrc
  4028     0436  0DDC               	rlf	___fldiv@grs,f
  4029     0437  0DDD               	rlf	___fldiv@grs+1,f
  4030     0438  0DDE               	rlf	___fldiv@grs+2,f
  4031     0439  0DDF               	rlf	___fldiv@grs+3,f
  4032     043A  0BD0               	decfsz	??___fldiv,f
  4033     043B  2C35               	goto	u1665
  4034     043C                     l1638:
  4035     043C  084B               	movf	___fldiv@a+3,w
  4036     043D  0258               	subwf	___fldiv@rem+3,w
  4037     043E  1D03               	skipz
  4038     043F  2C4A               	goto	u1675
  4039     0440  084A               	movf	___fldiv@a+2,w
  4040     0441  0257               	subwf	___fldiv@rem+2,w
  4041     0442  1D03               	skipz
  4042     0443  2C4A               	goto	u1675
  4043     0444  0849               	movf	___fldiv@a+1,w
  4044     0445  0256               	subwf	___fldiv@rem+1,w
  4045     0446  1D03               	skipz
  4046     0447  2C4A               	goto	u1675
  4047     0448  0848               	movf	___fldiv@a,w
  4048     0449  0255               	subwf	___fldiv@rem,w
  4049     044A                     u1675:
  4050     044A  1C03               	skipc
  4051     044B  2C4D               	goto	u1671
  4052     044C  2C4E               	goto	u1670
  4053     044D                     u1671:
  4054     044D  2C5D               	goto	l1644
  4055     044E                     u1670:
  4056     044E                     l1640:
  4057     044E  175F               	bsf	___fldiv@grs+3,6
  4058     044F                     l1642:
  4059     044F  0848               	movf	___fldiv@a,w
  4060     0450  02D5               	subwf	___fldiv@rem,f
  4061     0451  0849               	movf	___fldiv@a+1,w
  4062     0452  1C03               	skipc
  4063     0453  0F49               	incfsz	___fldiv@a+1,w
  4064     0454  02D6               	subwf	___fldiv@rem+1,f
  4065     0455  084A               	movf	___fldiv@a+2,w
  4066     0456  1C03               	skipc
  4067     0457  0F4A               	incfsz	___fldiv@a+2,w
  4068     0458  02D7               	subwf	___fldiv@rem+2,f
  4069     0459  084B               	movf	___fldiv@a+3,w
  4070     045A  1C03               	skipc
  4071     045B  0F4B               	incfsz	___fldiv@a+3,w
  4072     045C  02D8               	subwf	___fldiv@rem+3,f
  4073     045D                     l1644:
  4074     045D  3001               	movlw	1
  4075     045E  00D0               	movwf	??___fldiv
  4076     045F  0850               	movf	??___fldiv,w
  4077     0460  07E1               	addwf	___fldiv@aexp,f
  4078     0461                     l1646:
  4079     0461  301A               	movlw	26
  4080     0462  0261               	subwf	___fldiv@aexp,w
  4081     0463  1C03               	skipc
  4082     0464  2C66               	goto	u1681
  4083     0465  2C67               	goto	u1680
  4084     0466                     u1681:
  4085     0466  2C17               	goto	l1628
  4086     0467                     u1680:
  4087     0467                     l1648:
  4088     0467  0858               	movf	___fldiv@rem+3,w
  4089     0468  0457               	iorwf	___fldiv@rem+2,w
  4090     0469  0456               	iorwf	___fldiv@rem+1,w
  4091     046A  0455               	iorwf	___fldiv@rem,w
  4092     046B  1903               	skipnz
  4093     046C  2C6E               	goto	u1691
  4094     046D  2C6F               	goto	u1690
  4095     046E                     u1691:
  4096     046E  2C8E               	goto	l1662
  4097     046F                     u1690:
  4098     046F                     l1650:
  4099     046F  145C               	bsf	___fldiv@grs,0
  4100     0470  2C8E               	goto	l1662
  4101     0471                     l1652:
  4102     0471  3001               	movlw	1
  4103     0472  00D0               	movwf	??___fldiv
  4104     0473                     u1705:
  4105     0473  1003               	clrc
  4106     0474  0DCC               	rlf	___fldiv@b,f
  4107     0475  0DCD               	rlf	___fldiv@b+1,f
  4108     0476  0DCE               	rlf	___fldiv@b+2,f
  4109     0477  0DCF               	rlf	___fldiv@b+3,f
  4110     0478  0BD0               	decfsz	??___fldiv,f
  4111     0479  2C73               	goto	u1705
  4112     047A                     l1654:
  4113     047A  1FDF               	btfss	___fldiv@grs+3,7
  4114     047B  2C7D               	goto	u1711
  4115     047C  2C7E               	goto	u1710
  4116     047D                     u1711:
  4117     047D  2C7F               	goto	l1658
  4118     047E                     u1710:
  4119     047E                     l1656:
  4120     047E  144C               	bsf	___fldiv@b,0
  4121     047F                     l1658:
  4122     047F  3001               	movlw	1
  4123     0480  00D0               	movwf	??___fldiv
  4124     0481                     u1725:
  4125     0481  1003               	clrc
  4126     0482  0DDC               	rlf	___fldiv@grs,f
  4127     0483  0DDD               	rlf	___fldiv@grs+1,f
  4128     0484  0DDE               	rlf	___fldiv@grs+2,f
  4129     0485  0DDF               	rlf	___fldiv@grs+3,f
  4130     0486  0BD0               	decfsz	??___fldiv,f
  4131     0487  2C81               	goto	u1725
  4132     0488                     l1660:
  4133     0488  30FF               	movlw	255
  4134     0489  07DA               	addwf	___fldiv@new_exp,f
  4135     048A  1803               	skipnc
  4136     048B  0ADB               	incf	___fldiv@new_exp+1,f
  4137     048C  30FF               	movlw	255
  4138     048D  07DB               	addwf	___fldiv@new_exp+1,f
  4139     048E                     l1662:
  4140     048E  1FCE               	btfss	___fldiv@b+2,7
  4141     048F  2C91               	goto	u1731
  4142     0490  2C92               	goto	u1730
  4143     0491                     u1731:
  4144     0491  2C71               	goto	l1652
  4145     0492                     u1730:
  4146     0492                     l1664:
  4147     0492  01E1               	clrf	___fldiv@aexp
  4148     0493                     l1666:
  4149     0493  1FDF               	btfss	___fldiv@grs+3,7
  4150     0494  2C96               	goto	u1741
  4151     0495  2C97               	goto	u1740
  4152     0496                     u1741:
  4153     0496  2CB3               	goto	l1674
  4154     0497                     u1740:
  4155     0497                     l1668:
  4156     0497  30FF               	movlw	255
  4157     0498  055C               	andwf	___fldiv@grs,w
  4158     0499  00D0               	movwf	??___fldiv
  4159     049A  30FF               	movlw	255
  4160     049B  055D               	andwf	___fldiv@grs+1,w
  4161     049C  00D1               	movwf	??___fldiv+1
  4162     049D  30FF               	movlw	255
  4163     049E  055E               	andwf	___fldiv@grs+2,w
  4164     049F  00D2               	movwf	??___fldiv+2
  4165     04A0  307F               	movlw	127
  4166     04A1  055F               	andwf	___fldiv@grs+3,w
  4167     04A2  00D3               	movwf	??___fldiv+3
  4168     04A3  0853               	movf	??___fldiv+3,w
  4169     04A4  0452               	iorwf	??___fldiv+2,w
  4170     04A5  0451               	iorwf	??___fldiv+1,w
  4171     04A6  0450               	iorwf	??___fldiv,w
  4172     04A7  1903               	skipnz
  4173     04A8  2CAA               	goto	u1751
  4174     04A9  2CAB               	goto	u1750
  4175     04AA                     u1751:
  4176     04AA  2CAE               	goto	l659
  4177     04AB                     u1750:
  4178     04AB                     l1670:
  4179     04AB  01E1               	clrf	___fldiv@aexp
  4180     04AC  0AE1               	incf	___fldiv@aexp,f
  4181     04AD  2CB3               	goto	l1674
  4182     04AE                     l659:
  4183     04AE  1C4C               	btfss	___fldiv@b,0
  4184     04AF  2CB1               	goto	u1761
  4185     04B0  2CB2               	goto	u1760
  4186     04B1                     u1761:
  4187     04B1  2CB3               	goto	l1674
  4188     04B2                     u1760:
  4189     04B2  2CAB               	goto	l1670
  4190     04B3                     l1674:
  4191     04B3  0861               	movf	___fldiv@aexp,w
  4192     04B4  1903               	btfsc	3,2
  4193     04B5  2CB7               	goto	u1771
  4194     04B6  2CB8               	goto	u1770
  4195     04B7                     u1771:
  4196     04B7  2CE9               	goto	l1684
  4197     04B8                     u1770:
  4198     04B8                     l1676:
  4199     04B8  3001               	movlw	1
  4200     04B9  07CC               	addwf	___fldiv@b,f
  4201     04BA  3000               	movlw	0
  4202     04BB  1803               	skipnc
  4203     04BC  3001               	movlw	1
  4204     04BD  07CD               	addwf	___fldiv@b+1,f
  4205     04BE  3000               	movlw	0
  4206     04BF  1803               	skipnc
  4207     04C0  3001               	movlw	1
  4208     04C1  07CE               	addwf	___fldiv@b+2,f
  4209     04C2  3000               	movlw	0
  4210     04C3  1803               	skipnc
  4211     04C4  3001               	movlw	1
  4212     04C5  07CF               	addwf	___fldiv@b+3,f
  4213     04C6                     l1678:
  4214     04C6  1C4F               	btfss	___fldiv@b+3,0
  4215     04C7  2CC9               	goto	u1781
  4216     04C8  2CCA               	goto	u1780
  4217     04C9                     u1781:
  4218     04C9  2CE9               	goto	l1684
  4219     04CA                     u1780:
  4220     04CA                     l1680:
  4221     04CA  084C               	movf	___fldiv@b,w
  4222     04CB  00D0               	movwf	??___fldiv
  4223     04CC  084D               	movf	___fldiv@b+1,w
  4224     04CD  00D1               	movwf	??___fldiv+1
  4225     04CE  084E               	movf	___fldiv@b+2,w
  4226     04CF  00D2               	movwf	??___fldiv+2
  4227     04D0  084F               	movf	___fldiv@b+3,w
  4228     04D1  00D3               	movwf	??___fldiv+3
  4229     04D2  3001               	movlw	1
  4230     04D3  00D4               	movwf	??___fldiv+4
  4231     04D4                     u1795:
  4232     04D4  0D53               	rlf	??___fldiv+3,w
  4233     04D5  0CD3               	rrf	??___fldiv+3,f
  4234     04D6  0CD2               	rrf	??___fldiv+2,f
  4235     04D7  0CD1               	rrf	??___fldiv+1,f
  4236     04D8  0CD0               	rrf	??___fldiv,f
  4237     04D9                     u1790:
  4238     04D9  0BD4               	decfsz	??___fldiv+4,f
  4239     04DA  2CD4               	goto	u1795
  4240     04DB  0853               	movf	??___fldiv+3,w
  4241     04DC  00CF               	movwf	___fldiv@b+3
  4242     04DD  0852               	movf	??___fldiv+2,w
  4243     04DE  00CE               	movwf	___fldiv@b+2
  4244     04DF  0851               	movf	??___fldiv+1,w
  4245     04E0  00CD               	movwf	___fldiv@b+1
  4246     04E1  0850               	movf	??___fldiv,w
  4247     04E2  00CC               	movwf	___fldiv@b
  4248     04E3                     l1682:
  4249     04E3  3001               	movlw	1
  4250     04E4  07DA               	addwf	___fldiv@new_exp,f
  4251     04E5  1803               	skipnc
  4252     04E6  0ADB               	incf	___fldiv@new_exp+1,f
  4253     04E7  3000               	movlw	0
  4254     04E8  07DB               	addwf	___fldiv@new_exp+1,f
  4255     04E9                     l1684:
  4256     04E9  085B               	movf	___fldiv@new_exp+1,w
  4257     04EA  3A80               	xorlw	128
  4258     04EB  00FF               	movwf	btemp+1
  4259     04EC  3080               	movlw	128
  4260     04ED  027F               	subwf	btemp+1,w
  4261     04EE  1D03               	skipz
  4262     04EF  2CF2               	goto	u1805
  4263     04F0  30FF               	movlw	255
  4264     04F1  025A               	subwf	___fldiv@new_exp,w
  4265     04F2                     u1805:
  4266     04F2  1C03               	skipc
  4267     04F3  2CF5               	goto	u1801
  4268     04F4  2CF6               	goto	u1800
  4269     04F5                     u1801:
  4270     04F5  2D04               	goto	l1688
  4271     04F6                     u1800:
  4272     04F6                     l1686:
  4273     04F6  30FF               	movlw	255
  4274     04F7  1283               	bcf	3,5	;RP0=0, select bank0
  4275     04F8  1303               	bcf	3,6	;RP1=0, select bank0
  4276     04F9  00DA               	movwf	___fldiv@new_exp
  4277     04FA  3000               	movlw	0
  4278     04FB  00DB               	movwf	___fldiv@new_exp+1
  4279     04FC  3000               	movlw	0
  4280     04FD  00CF               	movwf	___fldiv@b+3
  4281     04FE  3000               	movlw	0
  4282     04FF  00CE               	movwf	___fldiv@b+2
  4283     0500  3000               	movlw	0
  4284     0501  00CD               	movwf	___fldiv@b+1
  4285     0502  3000               	movlw	0
  4286     0503  00CC               	movwf	___fldiv@b
  4287     0504                     l1688:
  4288     0504  1283               	bcf	3,5	;RP0=0, select bank0
  4289     0505  1303               	bcf	3,6	;RP1=0, select bank0
  4290     0506  085B               	movf	___fldiv@new_exp+1,w
  4291     0507  3A80               	xorlw	128
  4292     0508  00FF               	movwf	btemp+1
  4293     0509  3080               	movlw	128
  4294     050A  027F               	subwf	btemp+1,w
  4295     050B  1D03               	skipz
  4296     050C  2D0F               	goto	u1815
  4297     050D  3001               	movlw	1
  4298     050E  025A               	subwf	___fldiv@new_exp,w
  4299     050F                     u1815:
  4300     050F  1803               	skipnc
  4301     0510  2D12               	goto	u1811
  4302     0511  2D13               	goto	u1810
  4303     0512                     u1811:
  4304     0512  2D20               	goto	l665
  4305     0513                     u1810:
  4306     0513                     l1690:
  4307     0513  1283               	bcf	3,5	;RP0=0, select bank0
  4308     0514  1303               	bcf	3,6	;RP1=0, select bank0
  4309     0515  01DA               	clrf	___fldiv@new_exp
  4310     0516  01DB               	clrf	___fldiv@new_exp+1
  4311     0517                     l1692:
  4312     0517  3000               	movlw	0
  4313     0518  00CF               	movwf	___fldiv@b+3
  4314     0519  3000               	movlw	0
  4315     051A  00CE               	movwf	___fldiv@b+2
  4316     051B  3000               	movlw	0
  4317     051C  00CD               	movwf	___fldiv@b+1
  4318     051D  3000               	movlw	0
  4319     051E  00CC               	movwf	___fldiv@b
  4320     051F                     l1694:
  4321     051F  01D9               	clrf	___fldiv@sign
  4322     0520                     l665:
  4323     0520  1283               	bcf	3,5	;RP0=0, select bank0
  4324     0521  1303               	bcf	3,6	;RP1=0, select bank0
  4325     0522  085A               	movf	___fldiv@new_exp,w
  4326     0523  00E0               	movwf	___fldiv@bexp
  4327     0524                     l1696:
  4328     0524  1C60               	btfss	___fldiv@bexp,0
  4329     0525  2D27               	goto	u1821
  4330     0526  2D28               	goto	u1820
  4331     0527                     u1821:
  4332     0527  2D2A               	goto	l1700
  4333     0528                     u1820:
  4334     0528                     l1698:
  4335     0528  17CE               	bsf	___fldiv@b+2,7
  4336     0529  2D2E               	goto	l667
  4337     052A                     l1700:
  4338     052A  307F               	movlw	127
  4339     052B  00D0               	movwf	??___fldiv
  4340     052C  0850               	movf	??___fldiv,w
  4341     052D  05CE               	andwf	___fldiv@b+2,f
  4342     052E                     l667:
  4343     052E  0860               	movf	___fldiv@bexp,w
  4344     052F  00D0               	movwf	??___fldiv
  4345     0530  1003               	clrc
  4346     0531  0C50               	rrf	??___fldiv,w
  4347     0532  00CF               	movwf	___fldiv@b+3
  4348     0533  0859               	movf	___fldiv@sign,w
  4349     0534  00D0               	movwf	??___fldiv
  4350     0535  0850               	movf	??___fldiv,w
  4351     0536  04CF               	iorwf	___fldiv@b+3,f
  4352     0537  2BD4               	goto	l1608
  4353     0538                     l645:
  4354     0538  0008               	return
  4355     0539                     __end_of___fldiv:
  4356                           
  4357                           	psect	text15
  4358     0F78                     __ptext15:	
  4359 ;; *************** function _isr *****************
  4360 ;; Defined at:
  4361 ;;		line 80 in file "main_slave2.c"
  4362 ;; Parameters:    Size  Location     Type
  4363 ;;		None
  4364 ;; Auto vars:     Size  Location     Type
  4365 ;;		None
  4366 ;; Return value:  Size  Location     Type
  4367 ;;                  1    wreg      void 
  4368 ;; Registers used:
  4369 ;;		wreg, status,2, status,0, pclath, cstack
  4370 ;; Tracked objects:
  4371 ;;		On entry : 0/0
  4372 ;;		On exit  : 0/0
  4373 ;;		Unchanged: 0/0
  4374 ;; Data sizes:     COMMON   BANK0   BANK1   BANK3   BANK2
  4375 ;;      Params:         0       0       0       0       0
  4376 ;;      Locals:         0       0       0       0       0
  4377 ;;      Temps:          4       0       0       0       0
  4378 ;;      Totals:         4       0       0       0       0
  4379 ;;Total ram usage:        4 bytes
  4380 ;; Hardware stack levels used: 1
  4381 ;; Hardware stack levels required when called: 1
  4382 ;; This function calls:
  4383 ;;		_I2C_Error_Data
  4384 ;;		_I2C_Error_Read
  4385 ;;		_I2C_Read_Mode
  4386 ;;		_I2C_Read_Slave
  4387 ;;		_I2C_Write_Mode
  4388 ;;		_I2C_Write_Slave
  4389 ;; This function is called by:
  4390 ;;		Interrupt level 1
  4391 ;; This function uses a non-reentrant model
  4392 ;;
  4393                           
  4394     0F78                     _isr:	
  4395                           ;psect for function _isr
  4396                           
  4397     0F78                     i1l2118:
  4398                           
  4399                           ;main_slave2.c: 81:     if(INTCONbits.TMR0IF == 1){
  4400     0F78  1D0B               	btfss	11,2	;volatile
  4401     0F79  2F7B               	goto	u265_21
  4402     0F7A  2F7C               	goto	u265_20
  4403     0F7B                     u265_21:
  4404     0F7B  2FBE               	goto	i1l2138
  4405     0F7C                     u265_20:
  4406     0F7C                     i1l2120:
  4407                           
  4408                           ;main_slave2.c: 82:         cont_sr = cont_sr + 1;
  4409     0F7C  0879               	movf	_cont_sr,w
  4410     0F7D  3E01               	addlw	1
  4411     0F7E  00F9               	movwf	_cont_sr
  4412     0F7F  087A               	movf	_cont_sr+1,w
  4413     0F80  1803               	skipnc
  4414     0F81  3E01               	addlw	1
  4415     0F82  3E00               	addlw	0
  4416     0F83  00FA               	movwf	_cont_sr+1
  4417     0F84                     i1l2122:
  4418                           
  4419                           ;main_slave2.c: 83:         if(cont_sr > 490){
  4420     0F84  3001               	movlw	1
  4421     0F85  027A               	subwf	_cont_sr+1,w
  4422     0F86  30EB               	movlw	235
  4423     0F87  1903               	skipnz
  4424     0F88  0279               	subwf	_cont_sr,w
  4425     0F89  1C03               	skipc
  4426     0F8A  2F8C               	goto	u266_21
  4427     0F8B  2F8D               	goto	u266_20
  4428     0F8C                     u266_21:
  4429     0F8C  2F8F               	goto	i1l2126
  4430     0F8D                     u266_20:
  4431     0F8D                     i1l2124:
  4432                           
  4433                           ;main_slave2.c: 84:             cont_sr = 0;
  4434     0F8D  01F9               	clrf	_cont_sr
  4435     0F8E  01FA               	clrf	_cont_sr+1
  4436     0F8F                     i1l2126:
  4437                           
  4438                           ;main_slave2.c: 87:         if(cont_sr < data_s[0]){PORTAbits.RA0 = 1;} else{PORTAbits.R
      +                          A0 = 0;}
  4439     0F8F  1683               	bsf	3,5	;RP0=1, select bank1
  4440     0F90  1303               	bcf	3,6	;RP1=0, select bank1
  4441     0F91  0830               	movf	_data_s^(0+128),w
  4442     0F92  00F5               	movwf	??_isr
  4443     0F93  01F6               	clrf	??_isr+1
  4444     0F94  0876               	movf	??_isr+1,w
  4445     0F95  027A               	subwf	_cont_sr+1,w
  4446     0F96  1D03               	skipz
  4447     0F97  2F9A               	goto	u267_25
  4448     0F98  0875               	movf	??_isr,w
  4449     0F99  0279               	subwf	_cont_sr,w
  4450     0F9A                     u267_25:
  4451     0F9A  1803               	skipnc
  4452     0F9B  2F9D               	goto	u267_21
  4453     0F9C  2F9E               	goto	u267_20
  4454     0F9D                     u267_21:
  4455     0F9D  2FA2               	goto	i1l105
  4456     0F9E                     u267_20:
  4457     0F9E                     i1l2128:
  4458     0F9E  1283               	bcf	3,5	;RP0=0, select bank0
  4459     0F9F  1303               	bcf	3,6	;RP1=0, select bank0
  4460     0FA0  1405               	bsf	5,0	;volatile
  4461     0FA1  2FA5               	goto	i1l2130
  4462     0FA2                     i1l105:
  4463     0FA2  1283               	bcf	3,5	;RP0=0, select bank0
  4464     0FA3  1303               	bcf	3,6	;RP1=0, select bank0
  4465     0FA4  1005               	bcf	5,0	;volatile
  4466     0FA5                     i1l2130:
  4467                           
  4468                           ;main_slave2.c: 91:         if(cont_sr < data_s[1]){PORTAbits.RA1 = 1;} else{PORTAbits.R
      +                          A1 = 0;}
  4469     0FA5  1683               	bsf	3,5	;RP0=1, select bank1
  4470     0FA6  1303               	bcf	3,6	;RP1=0, select bank1
  4471     0FA7  0831               	movf	(_data_s^(0+128)+1),w
  4472     0FA8  00F5               	movwf	??_isr
  4473     0FA9  01F6               	clrf	??_isr+1
  4474     0FAA  0876               	movf	??_isr+1,w
  4475     0FAB  027A               	subwf	_cont_sr+1,w
  4476     0FAC  1D03               	skipz
  4477     0FAD  2FB0               	goto	u268_25
  4478     0FAE  0875               	movf	??_isr,w
  4479     0FAF  0279               	subwf	_cont_sr,w
  4480     0FB0                     u268_25:
  4481     0FB0  1803               	skipnc
  4482     0FB1  2FB3               	goto	u268_21
  4483     0FB2  2FB4               	goto	u268_20
  4484     0FB3                     u268_21:
  4485     0FB3  2FB8               	goto	i1l107
  4486     0FB4                     u268_20:
  4487     0FB4                     i1l2132:
  4488     0FB4  1283               	bcf	3,5	;RP0=0, select bank0
  4489     0FB5  1303               	bcf	3,6	;RP1=0, select bank0
  4490     0FB6  1485               	bsf	5,1	;volatile
  4491     0FB7  2FBB               	goto	i1l2134
  4492     0FB8                     i1l107:
  4493     0FB8  1283               	bcf	3,5	;RP0=0, select bank0
  4494     0FB9  1303               	bcf	3,6	;RP1=0, select bank0
  4495     0FBA  1085               	bcf	5,1	;volatile
  4496     0FBB                     i1l2134:
  4497                           
  4498                           ;main_slave2.c: 94:         TMR0 = 250;
  4499     0FBB  30FA               	movlw	250
  4500     0FBC  0081               	movwf	1	;volatile
  4501     0FBD                     i1l2136:
  4502                           
  4503                           ;main_slave2.c: 95:         INTCONbits.TMR0IF = 0;
  4504     0FBD  110B               	bcf	11,2	;volatile
  4505     0FBE                     i1l2138:
  4506                           
  4507                           ;main_slave2.c: 97:     if (PIR1bits.SSPIF == 1){
  4508     0FBE  1283               	bcf	3,5	;RP0=0, select bank0
  4509     0FBF  1303               	bcf	3,6	;RP1=0, select bank0
  4510     0FC0  1D8C               	btfss	12,3	;volatile
  4511     0FC1  2FC3               	goto	u269_21
  4512     0FC2  2FC4               	goto	u269_20
  4513     0FC3                     u269_21:
  4514     0FC3  2FF9               	goto	i1l113
  4515     0FC4                     u269_20:
  4516     0FC4                     i1l2140:
  4517                           
  4518                           ;main_slave2.c: 98:         if(I2C_Error_Read() != 0)
  4519     0FC4  120A  158A  25D7  120A  158A  	fcall	_I2C_Error_Read
  4520     0FC9  0870               	movf	?_I2C_Error_Read,w
  4521     0FCA  0471               	iorwf	?_I2C_Error_Read+1,w
  4522     0FCB  1903               	btfsc	3,2
  4523     0FCC  2FCE               	goto	u270_21
  4524     0FCD  2FCF               	goto	u270_20
  4525     0FCE                     u270_21:
  4526     0FCE  2FD4               	goto	i1l110
  4527     0FCF                     u270_20:
  4528     0FCF                     i1l2142:
  4529                           
  4530                           ;main_slave2.c: 99:         {;main_slave2.c: 100:             I2C_Error_Data();
  4531     0FCF  120A  158A  2575  120A  158A  	fcall	_I2C_Error_Data
  4532     0FD4                     i1l110:	
  4533                           ;main_slave2.c: 101:         }
  4534                           
  4535                           
  4536                           ;main_slave2.c: 102:         if(I2C_Write_Mode() == 1)
  4537     0FD4  120A  158A  25C2  120A  158A  	fcall	_I2C_Write_Mode
  4538     0FD9  0370               	decf	?_I2C_Write_Mode,w
  4539     0FDA  0471               	iorwf	?_I2C_Write_Mode+1,w
  4540     0FDB  1D03               	btfss	3,2
  4541     0FDC  2FDE               	goto	u271_21
  4542     0FDD  2FDF               	goto	u271_20
  4543     0FDE                     u271_21:
  4544     0FDE  2FE5               	goto	i1l2146
  4545     0FDF                     u271_20:
  4546     0FDF                     i1l2144:
  4547                           
  4548                           ;main_slave2.c: 103:         {;main_slave2.c: 104:             recibido = I2C_Read_Slave
      +                          ();
  4549     0FDF  120A  158A  2589  120A  158A  	fcall	_I2C_Read_Slave
  4550     0FE4  00FC               	movwf	_recibido
  4551     0FE5                     i1l2146:
  4552                           
  4553                           ;main_slave2.c: 106:         if(I2C_Read_Mode() == 1)
  4554     0FE5  120A  158A  25AD  120A  158A  	fcall	_I2C_Read_Mode
  4555     0FEA  0370               	decf	?_I2C_Read_Mode,w
  4556     0FEB  0471               	iorwf	?_I2C_Read_Mode+1,w
  4557     0FEC  1D03               	btfss	3,2
  4558     0FED  2FEF               	goto	u272_21
  4559     0FEE  2FF0               	goto	u272_20
  4560     0FEF                     u272_21:
  4561     0FEF  2FF6               	goto	i1l2150
  4562     0FF0                     u272_20:
  4563     0FF0                     i1l2148:
  4564                           
  4565                           ;main_slave2.c: 107:         {;main_slave2.c: 108:             I2C_Write_Slave(dis);
  4566     0FF0  087D               	movf	_dis,w
  4567     0FF1  120A  158A  259A  120A  158A  	fcall	_I2C_Write_Slave
  4568     0FF6                     i1l2150:
  4569                           
  4570                           ;main_slave2.c: 110:         PIR1bits.SSPIF = 0;
  4571     0FF6  1283               	bcf	3,5	;RP0=0, select bank0
  4572     0FF7  1303               	bcf	3,6	;RP1=0, select bank0
  4573     0FF8  118C               	bcf	12,3	;volatile
  4574     0FF9                     i1l113:
  4575     0FF9  0878               	movf	??_isr+3,w
  4576     0FFA  008A               	movwf	10
  4577     0FFB  0E77               	swapf	??_isr+2,w
  4578     0FFC  0083               	movwf	3
  4579     0FFD  0EFE               	swapf	btemp,f
  4580     0FFE  0E7E               	swapf	btemp,w
  4581     0FFF  0009               	retfie
  4582     1000                     __end_of_isr:
  4583                           
  4584                           	psect	intentry
  4585     0004                     __pintentry:	
  4586                           ;incstack = 0
  4587                           ; Regs used in _isr: [wreg+status,2+status,0+pclath+cstack]
  4588                           
  4589     0004                     interrupt_function:
  4590     007E                     saved_w	set	btemp
  4591     0004  00FE               	movwf	btemp
  4592     0005  0E03               	swapf	3,w
  4593     0006  00F7               	movwf	??_isr+2
  4594     0007  080A               	movf	10,w
  4595     0008  00F8               	movwf	??_isr+3
  4596     0009  120A  158A  2F78   	ljmp	_isr
  4597                           
  4598                           	psect	text16
  4599     0D9A                     __ptext16:	
  4600 ;; *************** function _I2C_Write_Slave *****************
  4601 ;; Defined at:
  4602 ;;		line 135 in file "i2c.c"
  4603 ;; Parameters:    Size  Location     Type
  4604 ;;  dato_i2c        1    wreg     unsigned char 
  4605 ;; Auto vars:     Size  Location     Type
  4606 ;;  dato_i2c        1    0[COMMON] unsigned char 
  4607 ;;  z               2    0        short 
  4608 ;; Return value:  Size  Location     Type
  4609 ;;                  1    wreg      void 
  4610 ;; Registers used:
  4611 ;;		wreg
  4612 ;; Tracked objects:
  4613 ;;		On entry : 0/0
  4614 ;;		On exit  : 0/0
  4615 ;;		Unchanged: 0/0
  4616 ;; Data sizes:     COMMON   BANK0   BANK1   BANK3   BANK2
  4617 ;;      Params:         0       0       0       0       0
  4618 ;;      Locals:         1       0       0       0       0
  4619 ;;      Temps:          0       0       0       0       0
  4620 ;;      Totals:         1       0       0       0       0
  4621 ;;Total ram usage:        1 bytes
  4622 ;; Hardware stack levels used: 1
  4623 ;; This function calls:
  4624 ;;		Nothing
  4625 ;; This function is called by:
  4626 ;;		_isr
  4627 ;; This function uses a non-reentrant model
  4628 ;;
  4629                           
  4630     0D9A                     _I2C_Write_Slave:	
  4631                           ;psect for function _I2C_Write_Slave
  4632                           
  4633                           
  4634                           ;incstack = 0
  4635                           ; Regs used in _I2C_Write_Slave: [wreg]
  4636                           ;I2C_Write_Slave@dato_i2c stored from wreg
  4637     0D9A  00F0               	movwf	I2C_Write_Slave@dato_i2c
  4638     0D9B                     i1l1986:
  4639     0D9B  1283               	bcf	3,5	;RP0=0, select bank0
  4640     0D9C  1303               	bcf	3,6	;RP1=0, select bank0
  4641     0D9D  0813               	movf	19,w	;volatile
  4642     0D9E                     i1l1988:
  4643                           
  4644                           ;i2c.c: 139:     BF = 0;
  4645     0D9E  1683               	bsf	3,5	;RP0=1, select bank1
  4646     0D9F  1303               	bcf	3,6	;RP1=0, select bank1
  4647     0DA0  1014               	bcf	20,0	;volatile
  4648                           
  4649                           ;i2c.c: 140:     SSPBUF = dato_i2c;
  4650     0DA1  0870               	movf	I2C_Write_Slave@dato_i2c,w
  4651     0DA2  1283               	bcf	3,5	;RP0=0, select bank0
  4652     0DA3  1303               	bcf	3,6	;RP1=0, select bank0
  4653     0DA4  0093               	movwf	19	;volatile
  4654     0DA5                     i1l1990:
  4655                           
  4656                           ;i2c.c: 141:     SSPCONbits.CKP = 1;
  4657     0DA5  1614               	bsf	20,4	;volatile
  4658     0DA6                     i1l179:	
  4659                           ;i2c.c: 142:     while(SSPSTATbits.BF == 1);
  4660                           
  4661     0DA6  1683               	bsf	3,5	;RP0=1, select bank1
  4662     0DA7  1303               	bcf	3,6	;RP1=0, select bank1
  4663     0DA8  1814               	btfsc	20,0	;volatile
  4664     0DA9  2DAB               	goto	u243_21
  4665     0DAA  2DAC               	goto	u243_20
  4666     0DAB                     u243_21:
  4667     0DAB  2DA6               	goto	i1l179
  4668     0DAC                     u243_20:
  4669     0DAC                     i1l182:
  4670     0DAC  0008               	return
  4671     0DAD                     __end_of_I2C_Write_Slave:
  4672                           
  4673                           	psect	text17
  4674     0DC2                     __ptext17:	
  4675 ;; *************** function _I2C_Write_Mode *****************
  4676 ;; Defined at:
  4677 ;;		line 103 in file "i2c.c"
  4678 ;; Parameters:    Size  Location     Type
  4679 ;;		None
  4680 ;; Auto vars:     Size  Location     Type
  4681 ;;		None
  4682 ;; Return value:  Size  Location     Type
  4683 ;;                  2    0[COMMON] short 
  4684 ;; Registers used:
  4685 ;;		wreg, status,2
  4686 ;; Tracked objects:
  4687 ;;		On entry : 0/0
  4688 ;;		On exit  : 0/0
  4689 ;;		Unchanged: 0/0
  4690 ;; Data sizes:     COMMON   BANK0   BANK1   BANK3   BANK2
  4691 ;;      Params:         2       0       0       0       0
  4692 ;;      Locals:         1       0       0       0       0
  4693 ;;      Temps:          2       0       0       0       0
  4694 ;;      Totals:         5       0       0       0       0
  4695 ;;Total ram usage:        5 bytes
  4696 ;; Hardware stack levels used: 1
  4697 ;; This function calls:
  4698 ;;		Nothing
  4699 ;; This function is called by:
  4700 ;;		_isr
  4701 ;; This function uses a non-reentrant model
  4702 ;;
  4703                           
  4704     0DC2                     _I2C_Write_Mode:	
  4705                           ;psect for function _I2C_Write_Mode
  4706                           
  4707     0DC2                     i1l1952:	
  4708                           ;incstack = 0
  4709                           ; Regs used in _I2C_Write_Mode: [wreg+status,2]
  4710                           
  4711                           
  4712                           ;i2c.c: 105:     return(!SSPSTATbits.D_nA && !SSPSTATbits.R_nW) ? 1 : 0;
  4713     0DC2  01F4               	clrf	_I2C_Write_Mode$544
  4714     0DC3                     i1l1954:
  4715     0DC3  1683               	bsf	3,5	;RP0=1, select bank1
  4716     0DC4  1303               	bcf	3,6	;RP1=0, select bank1
  4717     0DC5  1A94               	btfsc	20,5	;volatile
  4718     0DC6  2DC8               	goto	u238_21
  4719     0DC7  2DC9               	goto	u238_20
  4720     0DC8                     u238_21:
  4721     0DC8  2DCF               	goto	i1l1960
  4722     0DC9                     u238_20:
  4723     0DC9                     i1l1956:
  4724     0DC9  1914               	btfsc	20,2	;volatile
  4725     0DCA  2DCC               	goto	u239_21
  4726     0DCB  2DCD               	goto	u239_20
  4727     0DCC                     u239_21:
  4728     0DCC  2DCF               	goto	i1l1960
  4729     0DCD                     u239_20:
  4730     0DCD                     i1l1958:
  4731     0DCD  01F4               	clrf	_I2C_Write_Mode$544
  4732     0DCE  0AF4               	incf	_I2C_Write_Mode$544,f
  4733     0DCF                     i1l1960:
  4734     0DCF  0874               	movf	_I2C_Write_Mode$544,w
  4735     0DD0  00F2               	movwf	??_I2C_Write_Mode
  4736     0DD1  01F3               	clrf	??_I2C_Write_Mode+1
  4737     0DD2  0872               	movf	??_I2C_Write_Mode,w
  4738     0DD3  00F0               	movwf	?_I2C_Write_Mode
  4739     0DD4  0873               	movf	??_I2C_Write_Mode+1,w
  4740     0DD5  00F1               	movwf	?_I2C_Write_Mode+1
  4741     0DD6                     i1l162:
  4742     0DD6  0008               	return
  4743     0DD7                     __end_of_I2C_Write_Mode:
  4744                           
  4745                           	psect	text18
  4746     0D89                     __ptext18:	
  4747 ;; *************** function _I2C_Read_Slave *****************
  4748 ;; Defined at:
  4749 ;;		line 123 in file "i2c.c"
  4750 ;; Parameters:    Size  Location     Type
  4751 ;;		None
  4752 ;; Auto vars:     Size  Location     Type
  4753 ;;  z               2    0        short 
  4754 ;;  dato_i2c        1    0[COMMON] unsigned char 
  4755 ;; Return value:  Size  Location     Type
  4756 ;;                  1    wreg      unsigned char 
  4757 ;; Registers used:
  4758 ;;		wreg
  4759 ;; Tracked objects:
  4760 ;;		On entry : 0/0
  4761 ;;		On exit  : 0/0
  4762 ;;		Unchanged: 0/0
  4763 ;; Data sizes:     COMMON   BANK0   BANK1   BANK3   BANK2
  4764 ;;      Params:         0       0       0       0       0
  4765 ;;      Locals:         1       0       0       0       0
  4766 ;;      Temps:          0       0       0       0       0
  4767 ;;      Totals:         1       0       0       0       0
  4768 ;;Total ram usage:        1 bytes
  4769 ;; Hardware stack levels used: 1
  4770 ;; This function calls:
  4771 ;;		Nothing
  4772 ;; This function is called by:
  4773 ;;		_isr
  4774 ;; This function uses a non-reentrant model
  4775 ;;
  4776                           
  4777     0D89                     _I2C_Read_Slave:	
  4778                           ;psect for function _I2C_Read_Slave
  4779                           
  4780     0D89                     i1l1964:	
  4781                           ;incstack = 0
  4782                           ; Regs used in _I2C_Read_Slave: [wreg]
  4783                           
  4784     0D89  1283               	bcf	3,5	;RP0=0, select bank0
  4785     0D8A  1303               	bcf	3,6	;RP1=0, select bank0
  4786     0D8B  0813               	movf	19,w	;volatile
  4787     0D8C                     i1l173:	
  4788                           ;i2c.c: 128:     while(!BF);
  4789                           
  4790     0D8C  1683               	bsf	3,5	;RP0=1, select bank1
  4791     0D8D  1303               	bcf	3,6	;RP1=0, select bank1
  4792     0D8E  1C14               	btfss	20,0	;volatile
  4793     0D8F  2D91               	goto	u240_21
  4794     0D90  2D92               	goto	u240_20
  4795     0D91                     u240_21:
  4796     0D91  2D8C               	goto	i1l173
  4797     0D92                     u240_20:
  4798     0D92                     i1l1966:
  4799                           
  4800                           ;i2c.c: 129:     dato_i2c = SSPBUF;
  4801     0D92  1283               	bcf	3,5	;RP0=0, select bank0
  4802     0D93  1303               	bcf	3,6	;RP1=0, select bank0
  4803     0D94  0813               	movf	19,w	;volatile
  4804     0D95  00F0               	movwf	I2C_Read_Slave@dato_i2c
  4805     0D96                     i1l1968:
  4806                           
  4807                           ;i2c.c: 130:     SSPCONbits.CKP = 1;
  4808     0D96  1614               	bsf	20,4	;volatile
  4809     0D97                     i1l1970:
  4810                           
  4811                           ;i2c.c: 131:     SSPCONbits.SSPM3 = 0;
  4812     0D97  1194               	bcf	20,3	;volatile
  4813                           
  4814                           ;i2c.c: 132:     return dato_i2c;
  4815     0D98  0870               	movf	I2C_Read_Slave@dato_i2c,w
  4816     0D99                     i1l176:
  4817     0D99  0008               	return
  4818     0D9A                     __end_of_I2C_Read_Slave:
  4819                           
  4820                           	psect	text19
  4821     0DAD                     __ptext19:	
  4822 ;; *************** function _I2C_Read_Mode *****************
  4823 ;; Defined at:
  4824 ;;		line 107 in file "i2c.c"
  4825 ;; Parameters:    Size  Location     Type
  4826 ;;		None
  4827 ;; Auto vars:     Size  Location     Type
  4828 ;;		None
  4829 ;; Return value:  Size  Location     Type
  4830 ;;                  2    0[COMMON] short 
  4831 ;; Registers used:
  4832 ;;		wreg, status,2
  4833 ;; Tracked objects:
  4834 ;;		On entry : 0/0
  4835 ;;		On exit  : 0/0
  4836 ;;		Unchanged: 0/0
  4837 ;; Data sizes:     COMMON   BANK0   BANK1   BANK3   BANK2
  4838 ;;      Params:         2       0       0       0       0
  4839 ;;      Locals:         1       0       0       0       0
  4840 ;;      Temps:          2       0       0       0       0
  4841 ;;      Totals:         5       0       0       0       0
  4842 ;;Total ram usage:        5 bytes
  4843 ;; Hardware stack levels used: 1
  4844 ;; This function calls:
  4845 ;;		Nothing
  4846 ;; This function is called by:
  4847 ;;		_isr
  4848 ;; This function uses a non-reentrant model
  4849 ;;
  4850                           
  4851     0DAD                     _I2C_Read_Mode:	
  4852                           ;psect for function _I2C_Read_Mode
  4853                           
  4854     0DAD                     i1l1974:	
  4855                           ;incstack = 0
  4856                           ; Regs used in _I2C_Read_Mode: [wreg+status,2]
  4857                           
  4858                           
  4859                           ;i2c.c: 109:     return (!SSPSTATbits.D_nA && SSPSTATbits.R_nW) ? 1: 0;
  4860     0DAD  01F4               	clrf	_I2C_Read_Mode$546
  4861     0DAE                     i1l1976:
  4862     0DAE  1683               	bsf	3,5	;RP0=1, select bank1
  4863     0DAF  1303               	bcf	3,6	;RP1=0, select bank1
  4864     0DB0  1A94               	btfsc	20,5	;volatile
  4865     0DB1  2DB3               	goto	u241_21
  4866     0DB2  2DB4               	goto	u241_20
  4867     0DB3                     u241_21:
  4868     0DB3  2DBA               	goto	i1l1982
  4869     0DB4                     u241_20:
  4870     0DB4                     i1l1978:
  4871     0DB4  1D14               	btfss	20,2	;volatile
  4872     0DB5  2DB7               	goto	u242_21
  4873     0DB6  2DB8               	goto	u242_20
  4874     0DB7                     u242_21:
  4875     0DB7  2DBA               	goto	i1l1982
  4876     0DB8                     u242_20:
  4877     0DB8                     i1l1980:
  4878     0DB8  01F4               	clrf	_I2C_Read_Mode$546
  4879     0DB9  0AF4               	incf	_I2C_Read_Mode$546,f
  4880     0DBA                     i1l1982:
  4881     0DBA  0874               	movf	_I2C_Read_Mode$546,w
  4882     0DBB  00F2               	movwf	??_I2C_Read_Mode
  4883     0DBC  01F3               	clrf	??_I2C_Read_Mode+1
  4884     0DBD  0872               	movf	??_I2C_Read_Mode,w
  4885     0DBE  00F0               	movwf	?_I2C_Read_Mode
  4886     0DBF  0873               	movf	??_I2C_Read_Mode+1,w
  4887     0DC0  00F1               	movwf	?_I2C_Read_Mode+1
  4888     0DC1                     i1l167:
  4889     0DC1  0008               	return
  4890     0DC2                     __end_of_I2C_Read_Mode:
  4891                           
  4892                           	psect	text20
  4893     0DD7                     __ptext20:	
  4894 ;; *************** function _I2C_Error_Read *****************
  4895 ;; Defined at:
  4896 ;;		line 97 in file "i2c.c"
  4897 ;; Parameters:    Size  Location     Type
  4898 ;;		None
  4899 ;; Auto vars:     Size  Location     Type
  4900 ;;		None
  4901 ;; Return value:  Size  Location     Type
  4902 ;;                  2    0[COMMON] short 
  4903 ;; Registers used:
  4904 ;;		wreg, status,2
  4905 ;; Tracked objects:
  4906 ;;		On entry : 0/0
  4907 ;;		On exit  : 0/0
  4908 ;;		Unchanged: 0/0
  4909 ;; Data sizes:     COMMON   BANK0   BANK1   BANK3   BANK2
  4910 ;;      Params:         2       0       0       0       0
  4911 ;;      Locals:         1       0       0       0       0
  4912 ;;      Temps:          2       0       0       0       0
  4913 ;;      Totals:         5       0       0       0       0
  4914 ;;Total ram usage:        5 bytes
  4915 ;; Hardware stack levels used: 1
  4916 ;; This function calls:
  4917 ;;		Nothing
  4918 ;; This function is called by:
  4919 ;;		_isr
  4920 ;; This function uses a non-reentrant model
  4921 ;;
  4922                           
  4923     0DD7                     _I2C_Error_Read:	
  4924                           ;psect for function _I2C_Error_Read
  4925                           
  4926     0DD7                     i1l1930:	
  4927                           ;incstack = 0
  4928                           ; Regs used in _I2C_Error_Read: [wreg+status,2]
  4929                           
  4930                           
  4931                           ;i2c.c: 99:     SSPCONbits.CKP = 0;
  4932     0DD7  1283               	bcf	3,5	;RP0=0, select bank0
  4933     0DD8  1303               	bcf	3,6	;RP1=0, select bank0
  4934     0DD9  1214               	bcf	20,4	;volatile
  4935                           
  4936                           ;i2c.c: 100:     return ((SSPCONbits.SSPOV) || (SSPCONbits.WCOL)) ? 1 : 0;
  4937     0DDA  01F4               	clrf	_I2C_Error_Read$534
  4938     0DDB  0AF4               	incf	_I2C_Error_Read$534,f
  4939     0DDC  1B14               	btfsc	20,6	;volatile
  4940     0DDD  2DDF               	goto	u236_21
  4941     0DDE  2DE0               	goto	u236_20
  4942     0DDF                     u236_21:
  4943     0DDF  2DE5               	goto	i1l1936
  4944     0DE0                     u236_20:
  4945     0DE0                     i1l1932:
  4946     0DE0  1B94               	btfsc	20,7	;volatile
  4947     0DE1  2DE3               	goto	u237_21
  4948     0DE2  2DE4               	goto	u237_20
  4949     0DE3                     u237_21:
  4950     0DE3  2DE5               	goto	i1l1936
  4951     0DE4                     u237_20:
  4952     0DE4                     i1l1934:
  4953     0DE4  01F4               	clrf	_I2C_Error_Read$534
  4954     0DE5                     i1l1936:
  4955     0DE5  0874               	movf	_I2C_Error_Read$534,w
  4956     0DE6  00F2               	movwf	??_I2C_Error_Read
  4957     0DE7  01F3               	clrf	??_I2C_Error_Read+1
  4958     0DE8  0872               	movf	??_I2C_Error_Read,w
  4959     0DE9  00F0               	movwf	?_I2C_Error_Read
  4960     0DEA  0873               	movf	??_I2C_Error_Read+1,w
  4961     0DEB  00F1               	movwf	?_I2C_Error_Read+1
  4962     0DEC                     i1l157:
  4963     0DEC  0008               	return
  4964     0DED                     __end_of_I2C_Error_Read:
  4965                           
  4966                           	psect	text21
  4967     0D75                     __ptext21:	
  4968 ;; *************** function _I2C_Error_Data *****************
  4969 ;; Defined at:
  4970 ;;		line 112 in file "i2c.c"
  4971 ;; Parameters:    Size  Location     Type
  4972 ;;		None
  4973 ;; Auto vars:     Size  Location     Type
  4974 ;;  z               2    0        short 
  4975 ;; Return value:  Size  Location     Type
  4976 ;;                  1    wreg      void 
  4977 ;; Registers used:
  4978 ;;		wreg
  4979 ;; Tracked objects:
  4980 ;;		On entry : 0/0
  4981 ;;		On exit  : 0/0
  4982 ;;		Unchanged: 0/0
  4983 ;; Data sizes:     COMMON   BANK0   BANK1   BANK3   BANK2
  4984 ;;      Params:         0       0       0       0       0
  4985 ;;      Locals:         0       0       0       0       0
  4986 ;;      Temps:          0       0       0       0       0
  4987 ;;      Totals:         0       0       0       0       0
  4988 ;;Total ram usage:        0 bytes
  4989 ;; Hardware stack levels used: 1
  4990 ;; This function calls:
  4991 ;;		Nothing
  4992 ;; This function is called by:
  4993 ;;		_isr
  4994 ;; This function uses a non-reentrant model
  4995 ;;
  4996                           
  4997     0D75                     _I2C_Error_Data:	
  4998                           ;psect for function _I2C_Error_Data
  4999                           
  5000     0D75                     i1l1940:	
  5001                           ;incstack = 0
  5002                           ; Regs used in _I2C_Error_Data: [wreg]
  5003                           
  5004                           
  5005                           ;i2c.c: 114:     short z;;i2c.c: 115:     SSPCONbits.CKP = 0;
  5006     0D75  1283               	bcf	3,5	;RP0=0, select bank0
  5007     0D76  1303               	bcf	3,6	;RP1=0, select bank0
  5008     0D77  1214               	bcf	20,4	;volatile
  5009     0D78                     i1l1942:
  5010     0D78  0813               	movf	19,w	;volatile
  5011     0D79                     i1l1944:
  5012                           
  5013                           ;i2c.c: 117:     SSPCONbits.SSPOV = 0;
  5014     0D79  1314               	bcf	20,6	;volatile
  5015     0D7A                     i1l1946:
  5016                           
  5017                           ;i2c.c: 118:     SSPCONbits.WCOL = 0;
  5018     0D7A  1394               	bcf	20,7	;volatile
  5019     0D7B                     i1l1948:
  5020                           
  5021                           ;i2c.c: 119:     SSPCONbits.CKP = 1;
  5022     0D7B  1614               	bsf	20,4	;volatile
  5023     0D7C                     i1l1950:
  5024                           
  5025                           ;i2c.c: 120:     SSPCONbits.SSPM3 = 0;
  5026     0D7C  1194               	bcf	20,3	;volatile
  5027     0D7D                     i1l170:
  5028     0D7D  0008               	return
  5029     0D7E                     __end_of_I2C_Error_Data:
  5030     007E                     btemp	set	126	;btemp
  5031     007E                     wtemp0	set	126
  5032                           
  5033                           	psect	idloc
  5034                           
  5035                           ;Config register IDLOC0 @ 0x2000
  5036                           ;	unspecified, using default values
  5037     2000                     	org	8192
  5038     2000  3FFF               	dw	16383
  5039                           
  5040                           ;Config register IDLOC1 @ 0x2001
  5041                           ;	unspecified, using default values
  5042     2001                     	org	8193
  5043     2001  3FFF               	dw	16383
  5044                           
  5045                           ;Config register IDLOC2 @ 0x2002
  5046                           ;	unspecified, using default values
  5047     2002                     	org	8194
  5048     2002  3FFF               	dw	16383
  5049                           
  5050                           ;Config register IDLOC3 @ 0x2003
  5051                           ;	unspecified, using default values
  5052     2003                     	org	8195
  5053     2003  3FFF               	dw	16383
  5054                           
  5055                           	psect	config
  5056                           
  5057                           ;Config register CONFIG1 @ 0x2007
  5058                           ;	Oscillator Selection bits
  5059                           ;	FOSC = INTRC_NOCLKOUT, INTOSCIO oscillator: I/O function on RA6/OSC2/CLKOUT pin, I/O f
      +                          unction on RA7/OSC1/CLKIN
  5060                           ;	Watchdog Timer Enable bit
  5061                           ;	WDTE = OFF, WDT disabled and can be enabled by SWDTEN bit of the WDTCON register
  5062                           ;	Power-up Timer Enable bit
  5063                           ;	PWRTE = OFF, PWRT disabled
  5064                           ;	RE3/MCLR pin function select bit
  5065                           ;	MCLRE = OFF, RE3/MCLR pin function is digital input, MCLR internally tied to VDD
  5066                           ;	Code Protection bit
  5067                           ;	CP = OFF, Program memory code protection is disabled
  5068                           ;	Data Code Protection bit
  5069                           ;	CPD = OFF, Data memory code protection is disabled
  5070                           ;	Brown Out Reset Selection bits
  5071                           ;	BOREN = OFF, BOR disabled
  5072                           ;	Internal External Switchover bit
  5073                           ;	IESO = OFF, Internal/External Switchover mode is disabled
  5074                           ;	Fail-Safe Clock Monitor Enabled bit
  5075                           ;	FCMEN = OFF, Fail-Safe Clock Monitor is disabled
  5076                           ;	Low Voltage Programming Enable bit
  5077                           ;	LVP = OFF, RB3 pin has digital I/O, HV on MCLR must be used for programming
  5078                           ;	In-Circuit Debugger Mode bit
  5079                           ;	DEBUG = 0x1, unprogramme  5080     2007                     	org	8199
  5081     2007  20D4               	dw	8404
  5082                           
  5083                           ;Config register CONFIG2 @ 0x2008
  5084                           ;	Brown-out Reset Selection bit
  5085                           ;	BOR4V = BOR40V, Brown-out Reset set to 4.0V
  5086                           ;	Flash Program Memory Self Write Enable bits
  5087                           ;	WRT = OFF, Write protection off
  5088     2008                     	org	8200
  5089     2008  3FFF               	dw	16383

Data Sizes:
    Strings     0
    Constant    0
    Data        0
    BSS         12
    Persistent  1
    Stack       0

Auto Spaces:
    Space          Size  Autos    Used
    COMMON           14      9      14
    BANK0            80     79      79
    BANK1            80     16      24
    BANK3            96      0       0
    BANK2            96      0       0

Pointer List with Targets:

    None.

Critical Paths under _main in COMMON

    None.

Critical Paths under _isr in COMMON

    _isr->_I2C_Error_Read
    _isr->_I2C_Read_Mode
    _isr->_I2C_Write_Mode

Critical Paths under _main in BANK0

    _main->___fltol
    _setup->_I2C_Init_Slave
    ___fltol->___fldiv
    _Servo_2_Write->___awdiv
    _Servo_1_Write->___awdiv
    ___awdiv->___wmul
    _HCSR04_Get_Distance->___fldiv
    ___flmul->___xxtofl
    ___fldiv->___flmul

Critical Paths under _isr in BANK0

    None.

Critical Paths under _main in BANK1

    _main->_HCSR04_Get_Distance

Critical Paths under _isr in BANK1

    None.

Critical Paths under _main in BANK3

    None.

Critical Paths under _isr in BANK3

    None.

Critical Paths under _main in BANK2

    None.

Critical Paths under _isr in BANK2

    None.

Call Graph Tables:

 ---------------------------------------------------------------------------------
 (Depth) Function   	        Calls       Base Space   Used Autos Params    Refs
 ---------------------------------------------------------------------------------
 (0) _main                                                 7     7      0   12924
                                             76 BANK0      3     3      0
                                             12 BANK1      4     4      0
                _HCSR04_Get_Distance
                        _HCSR04_Init
                      _Servo_1_Write
                      _Servo_2_Write
                            ___fldiv
                            ___flmul
                            ___fltol
                              _setup
 ---------------------------------------------------------------------------------
 (1) _setup                                                0     0      0      22
                     _I2C_Init_Slave
                         _Servo_Init
 ---------------------------------------------------------------------------------
 (2) _Servo_Init                                           0     0      0       0
 ---------------------------------------------------------------------------------
 (2) _I2C_Init_Slave                                       1     1      0      22
                                              0 BANK0      1     1      0
 ---------------------------------------------------------------------------------
 (1) ___fltol                                             10     6      4     381
                                             66 BANK0     10     6      4
                            ___fldiv (ARG)
                            ___flmul (ARG)
 ---------------------------------------------------------------------------------
 (1) _Servo_2_Write                                        3     3      0    1022
                                             15 BANK0      3     3      0
                            ___awdiv
                             ___wmul
 ---------------------------------------------------------------------------------
 (1) _Servo_1_Write                                        3     3      0    1022
                                             15 BANK0      3     3      0
                            ___awdiv
                             ___wmul
 ---------------------------------------------------------------------------------
 (2) ___wmul                                               6     2      4     396
                                              0 BANK0      6     2      4
 ---------------------------------------------------------------------------------
 (2) ___awdiv                                              9     5      4     604
                                              6 BANK0      9     5      4
                             ___wmul (ARG)
 ---------------------------------------------------------------------------------
 (1) _HCSR04_Init                                          0     0      0       0
 ---------------------------------------------------------------------------------
 (1) _HCSR04_Get_Distance                                 18    14      4    5548
                                             66 BANK0      6     2      4
                                              0 BANK1     12    12      0
                            ___fldiv
                            ___flmul
                           ___xxtofl
 ---------------------------------------------------------------------------------
 (2) ___xxtofl                                            14    10      4     550
                                              0 BANK0     14    10      4
 ---------------------------------------------------------------------------------
 (1) ___flmul                                             26    18      8    3025
                                             14 BANK0     26    18      8
                          __Umul8_16
                           ___xxtofl (ARG)
 ---------------------------------------------------------------------------------
 (2) __Umul8_16                                            9     7      2     799
                                              0 BANK0      9     7      2
 ---------------------------------------------------------------------------------
 (1) ___fldiv                                             26    18      8    1881
                                             40 BANK0     26    18      8
                            ___flmul (ARG)
                           ___xxtofl (ARG)
 ---------------------------------------------------------------------------------
 Estimated maximum stack depth 2
 ---------------------------------------------------------------------------------
 (Depth) Function   	        Calls       Base Space   Used Autos Params    Refs
 ---------------------------------------------------------------------------------
 (4) _isr                                                  4     4      0     120
                                              5 COMMON     4     4      0
                     _I2C_Error_Data
                     _I2C_Error_Read
                      _I2C_Read_Mode
                     _I2C_Read_Slave
                     _I2C_Write_Mode
                    _I2C_Write_Slave
 ---------------------------------------------------------------------------------
 (5) _I2C_Write_Slave                                      3     3      0      23
                                              0 COMMON     1     1      0
 ---------------------------------------------------------------------------------
 (5) _I2C_Write_Mode                                       5     3      2      24
                                              0 COMMON     5     3      2
 ---------------------------------------------------------------------------------
 (5) _I2C_Read_Slave                                       3     3      0      24
                                              0 COMMON     1     1      0
 ---------------------------------------------------------------------------------
 (5) _I2C_Read_Mode                                        5     3      2      24
                                              0 COMMON     5     3      2
 ---------------------------------------------------------------------------------
 (5) _I2C_Error_Read                                       5     3      2      24
                                              0 COMMON     5     3      2
 ---------------------------------------------------------------------------------
 (5) _I2C_Error_Data                                       2     2      0       1
 ---------------------------------------------------------------------------------
 Estimated maximum stack depth 5
 ---------------------------------------------------------------------------------

 Call Graph Graphs:

 _main (ROOT)
   _HCSR04_Get_Distance
     ___fldiv
       ___flmul (ARG)
         __Umul8_16
         ___xxtofl (ARG)
       ___xxtofl (ARG)
     ___flmul
     ___xxtofl
   _HCSR04_Init
   _Servo_1_Write
     ___awdiv
       ___wmul (ARG)
     ___wmul
   _Servo_2_Write
     ___awdiv
     ___wmul
   ___fldiv
   ___flmul
   ___fltol
     ___fldiv (ARG)
     ___flmul (ARG)
   _setup
     _I2C_Init_Slave
     _Servo_Init

 _isr (ROOT)
   _I2C_Error_Data
   _I2C_Error_Read
   _I2C_Read_Mode
   _I2C_Read_Slave
   _I2C_Write_Mode
   _I2C_Write_Slave

 Address spaces:
Name               Size   Autos  Total    Cost      Usage
BITCOMMON            E      0       0       0        0.0%
EEDATA             100      0       0       0        0.0%
NULL                 0      0       0       0        0.0%
CODE                 0      0       0       0        0.0%
COMMON               E      9       E       1      100.0%
BITSFR0              0      0       0       1        0.0%
SFR0                 0      0       0       1        0.0%
BITSFR1              0      0       0       2        0.0%
SFR1                 0      0       0       2        0.0%
STACK                0      0       0       2        0.0%
ABS                  0      0      75       3        0.0%
BITBANK0            50      0       0       4        0.0%
BITSFR3              0      0       0       4        0.0%
SFR3                 0      0       0       4        0.0%
BANK0               50     4F      4F       5       98.8%
BITSFR2              0      0       0       5        0.0%
SFR2                 0      0       0       5        0.0%
BITBANK1            50      0       0       6        0.0%
BANK1               50     10      18       7       30.0%
BITBANK3            60      0       0       8        0.0%
BANK3               60      0       0       9        0.0%
BITBANK2            60      0       0      10        0.0%
BANK2               60      0       0      11        0.0%
DATA                 0      0      75      12        0.0%


Microchip Technology PIC Macro Assembler V2.40 build 20220703182018 
Symbol Table                                                                                   Wed Feb 22 01:02:07 2023

     _HCSR04_Get_Distance$1261 00A4                   ___fldiv@aexp 0061                   ___fldiv@bexp 0060  
                 ___fldiv@sign 0059                    _SSPSTATbits 0094                             _BF 04A0  
                 ___awdiv@sign 002C            ___wmul@multiplicand 0022            __Umul8_16@word_mpld 0026  
                          l202 0546                            l122 07FC                            l116 0E26  
                          l205 054C                            l125 07D2                            l119 0E07  
                          l208 0628                            l152 0E46                            l702 0E84  
                          l294 0E55                            l199 0D88                            l447 0EFF  
                          l704 0E96                            l296 0E6D                            l480 0F77  
                          l490 0F77                            l643 03BC                            l740 0772  
                          l645 0538                            l741 077E                            l733 0756  
                          l727 0713                            l487 0F62                            l665 0520  
                          l729 07A8                            l667 052E                            l659 04AE  
                          l683 0365                            l695 0359                            l689 02D5  
                          _dis 007D                            _isr 0F78                   ___flmul@aexp 0040  
                 ___flmul@bexp 0041                   ___flmul@sign 003B                   ___flmul@temp 0046  
                 ___flmul@prod 0042                   ___fltol@exp1 006B                           l2000 0F27  
                         l2002 0F28                           l2004 0F30                           l2022 0F57  
                         l2014 0F3E                           l2006 0F32                           l2110 06B7  
                         l2102 0629                           l2024 0F67                           l2008 0F36  
                         l2016 0F50                           l2112 06BD                           l2104 0633  
                         l2026 0F6C                           l2114 06C3                           l2106 0650  
                         l1500 0E3F                           l2116 06DD                           l2108 06A9  
                         l1510 0E4F                           l1502 0E40                           l1600 03B2  
                         l1520 0E97                           l1512 0E5C                           l1504 0E43  
                         l1602 03B4                           l1530 0EA9                           l1522 0E9A  
                         l1514 0E63                           l1506 0E47                           l1700 052A  
                         l1620 03FD                           l1604 03C4                           l1612 03DD  
                         l1540 0EBD                           l1532 0EAE                           l1524 0E9E  
                         l1516 0E69                           l1508 0E4B                           l1630 041C  
                         l1622 0405                           l1614 03E2                           l1606 03D0  
                         l1710 002A                           l1550 0EE3                           l1542 0EC4  
                         l1534 0EB2                           l1526 0EA3                           l1640 044E  
                         l1632 042E                           l1624 040D                           l1608 03D4  
                         l1480 0E7A                           l1800 02AF                           l1720 0041  
                         l1712 002E                           l1560 0EFB                           l1552 0EE4  
                         l1544 0EC8                           l1536 0EB4                           l1528 0EA5  
                         l1650 046F                           l1642 044F                           l1634 0432  
                         l1626 0415                           l1618 03EB                           l1570 0373  
                         l1482 0E7E                           l1810 02D2                           l1802 02B5  
                         l1730 0058                           l1722 0043                           l1714 002F  
                         l1706 0021                           l1554 0EEB                           l1546 0ECC  
                         l1538 0EBA                           l1490 0DED                           l1660 0488  
                         l1652 0471                           l1644 045D                           l1636 0433  
                         l1628 0417                           l1580 0387                           l1572 0374  
                         l1564 0366                           l1484 0E8D                           l1476 0E71  
                         l1820 02F1                           l1804 02B9                           l1740 006D  
                         l1732 0059                           l1724 004B                           l1716 0034  
                         l1708 0026                           l1548 0EDD                           l1556 0EF1  
                         l1492 0E03                           l1900 0E1B                           l1670 04AB  
                         l1654 047A                           l1662 048E                           l1638 043C  
                         l1646 0461                           l1590 039E                           l1574 0379  
                         l1582 0389                           l1566 036B                           l1486 0E92  
                         l1478 0E73                           l1830 0337                           l1822 030A  
                         l1814 02DA                           l1806 02BA                           l1750 0088  
                         l1742 0075                           l1734 005E                           l1726 0050  
                         l1718 0039                           l1910 0539                           l1558 0EF6  
                         l1494 0E2A                           l1902 0E20                           l1680 04CA  
                         l1664 0492                           l1656 047E                           l1648 0467  
                         l1592 039F                           l1584 0391                           l1576 037E  
                         l1568 036F                           l1840 0354                           l1832 0341  
                         l1816 02DF                           l1824 0310                           l1808 02BE  
                         l1760 0104                           l1752 0096                           l1744 007A  
                         l1736 0063                           l1728 0054                           l1920 056C  
                         l1912 053C                           l1904 0D7E                           l1496 0E2E  
                         l1690 0513                           l1682 04E3                           l1674 04B3  
                         l1666 0493                           l1658 047F                           l1594 03A4  
                         l1586 0396                           l1578 0386                           l1842 035D  
                         l1834 0343                           l1826 031D                           l1818 02ED  
                         l1770 0170                           l1762 0120                           l1754 00A3  
                         l1746 007F                           l1738 006B                           l1850 06FB  
                         l1922 05BC                           l1914 0543                           l1906 0D85  
                         l1498 0E3E                           l1692 0517                           l1676 04B8  
                         l1684 04E9                           l1668 0497                           l1596 03A9  
                         l1588 039A                           l1836 034F                           l1828 0328  
                         l1780 01FA                           l1772 017E                           l1764 013C  
                         l1756 00BE                           l1860 0727                           l1852 070B  
                         l1916 054A                           l1908 0D87                           l1694 051F  
                         l1686 04F6                           l1678 04C6                           l1598 03B1  
                         l1838 0353                           l1790 028A                           l1782 0208  
                         l1774 019B                           l1766 0145                           l1758 00DA  
                         l1870 075D                           l1862 0734                           l1854 071B  
                         l1846 06F2                           l1918 0550                           l1926 07D6  
                         l1696 0524                           l1688 0504                           l1792 0298  
                         l1784 0233                           l1776 01B2                           l1768 0153  
                         l1880 0796                           l1872 0768                           l1864 073B  
                         l1848 06F7                           l1928 07AC                           l1698 0528  
                         l1794 02A1                           l1786 0259                           l1778 01CF  
                         l1882 079B                           l1874 076C                           l1866 073F  
                         l1858 0724                           l1890 0E08                           l1796 02A5  
                         l1788 0281                           l1884 079F                           l1876 0776  
                         l1868 074D                           l1892 0E15                           l1798 02A6  
                         l1886 07A0                           l1878 0780                           l1894 0E18  
                         l1992 0F00                           l1896 0E19                           l1994 0F0B  
                         l1898 0E1A                           l1998 0F14                           ?_isr 0070  
                         u2001 01EC                           u2002 01F3                           u2011 0217  
                         u2003 01FA                           u2100 02B9                           u2020 023F  
                         u2012 021E                           u2101 02B8                           u2013 0225  
                         u2110 02BE                           u2111 02BD                           u2031 024B  
                         u2120 02D2                           u2040 0267                           u2032 0252  
                         u2200 06F7                           u1400 0E4F                           u2121 02D1  
                         u2033 0259                           u2025 023A                           u2201 06F6  
                         u1401 0E4E                           u2130 02D9                           u2210 06FB  
                         u2131 02D8                           u2051 0273                           u2211 06FA  
                         u2140 02DF                           u2052 027A                           u2300 0776  
                         u2220 071B                           u1500 0EDD                           u2141 02DE  
                         u2053 0281                           u2045 0262                           u2301 0775  
                         u2221 071A                           u1501 0EDC                           u2150 02F1  
                         u2310 078B                           u1430 0E69                           u2151 02F0  
                         u1431 0E68                           u1415 0E56                           u1600 03C4  
                         u2160 0300                           u2080 02A5                           u2320 079B  
                         u2240 073A                           u1520 0EF1                           u1440 0E9E  
                         u1601 03C3                           u2081 02A4                           u2065 0283  
                         u2321 079A                           u2241 0739                           u1521 0EF0  
                         u1505 0ED9                           u1441 0E9D                           u1425 0E5D  
                         u1610 03E2                           u1370 0E7E                           u2170 031D  
                         u2330 079F                           u1530 0EF6                           u1450 0EA9  
                         u1611 03E1                           u1371 0E7D                           u2171 031C  
                         u2075 029A                           u2331 079E                           u2315 0786  
                         u2235 072C                           u1531 0EF5                           u1515 0EE5  
                         u1451 0EA8                           u1620 041C                           u1540 0373  
                         u2180 0337                           u2260 075C                           u2340 054A  
                         u1460 0EBA                           u2500 0F56                           u1621 041B  
                         u1541 0372                           u2181 0336                           u2165 02FB  
                         u2261 075B                           u2341 0549                           u1461 0EB9  
                         u2501 0F55                           u1710 047E                           u1550 0379  
                         u1390 0E92                           u2190 0353                           u2350 0550  
                         u1711 047D                           u1551 0378                           u1391 0E91  
                         u2191 0352                           u2175 0319                           u2095 02A8  
                         u2255 074E                           u2351 054F                           u1800 04F6  
                         u1560 037E                           u2280 076C                           u1480 0ECC  
                         u2520 0F67                           u2440 0F0B                           u1801 04F5  
                         u1705 0473                           u1561 037D                           u1385 0E85  
                         u2185 0333                           u2281 076B                           u1481 0ECB  
                         u2521 0F66                           u2441 0F0A                           u1810 0513  
                         u1730 0492                           u1650 0432                           u1570 039E  
                         u2290 0772                           u2530 0F6C                           u2450 0F22  
                         u1811 0512                           u1731 0491                           u1651 0431  
                         u1635 041E                           u1571 039D                           u2291 0771  
                         u2275 0761                           u1475 0EBE                           u2531 0F6B  
                         u2515 0F59                           u1820 0528                           u1740 0497  
                         u1580 03A4                           u1900 007F                           u2460 0F36  
                         u1821 0527                           u1805 04F2                           u1741 0496  
                         u1725 0481                           u1645 0427                           u1581 03A3  
                         u1901 007E                           u2461 0F35                           u1750 04AB  
                         u1670 044E                           u1590 03A9                           u1830 002E  
                         u2470 0F3D                           u1815 050F                           u1751 04AA  
                         u1671 044D                           u1591 03A8                           u1911 00CC  
                         u1831 002D                           u1495 0ECD                           u2471 0F3C  
                         u2455 0F1D                           u1760 04B2                           u1680 0467  
                         u1912 00D3                           u1840 0034                           u1761 04B1  
                         u1681 0466                           u1665 0435                           u1921 00E8  
                         u1913 00DA                           u1841 0033                           u1770 04B8  
                         u1690 046F                           u1922 00EF                           u1850 0039  
                         u2490 0F4F                           u1771 04B7                           u1691 046E  
                         u1675 044A                           u1931 0112                           u1923 00F6  
                         u1851 0038                           u2491 0F4E                           u1780 04CA  
                         u1932 0119                           u1860 0058                           u1781 04C9  
                         u1941 012E                           u1933 0120                           u1861 0057  
                         u2485 0F3F                           u1790 04D9                           u1942 0135  
                         u1870 005E                           u1943 013C                           u1871 005D  
                         u1880 0063                           u1961 0162                           u1881 0062  
                         u2737 06B1                           u1962 0169                           u1890 007A  
                         u1795 04D4                           u1971 018D                           u1963 0170  
                         u1955 013E                           u1891 0079                           u2747 06CB  
                         u1972 0194                           u1973 019B                           u2757 06E5  
                         u1991 01C1                           u2767 0540                           u1992 01C8  
                         u1993 01CF                           u1985 019D                           _TMR0 0001  
                         _main 0629                           btemp 007E                           start 000C  
              ___fldiv@new_exp 005A                          ??_isr 0075                  ___fltol@sign1 006A  
                        ?_main 0070                __end_of___fldiv 0539                __end_of___awdiv 0F00  
              __end_of___flmul 0366                __end_of___fltol 0F78                          _ANSEL 0188  
              ___awdiv@divisor 0026                          _T1CON 0010                _I2C_Write_Slave 0D9A  
                        i1l110 0FD4                          i1l113 0FF9                          i1l105 0FA2  
                        i1l107 0FB8                          i1l170 0D7D                          i1l162 0DD6  
                        i1l157 0DEC                          i1l173 0D8C                          i1l182 0DAC  
                        i1l167 0DC1                          i1l176 0D99                          i1l179 0DA6  
              ___awdiv@counter 002B                          _TMR1H 000F                          _TMR1L 000E  
                        _PORTA 0005                          _PORTB 0006                          _PORTC 0007  
                        _PORTD 0008                          _TRISA 0085                          _setup 0E08  
                        pclath 000A                          status 0003                          wtemp0 007E  
              __initialization 000F                   __end_of_main 06EF         I2C_Read_Slave@dato_i2c 0070  
                       ??_main 006C                  main@distancia 00AC               ___awdiv@dividend 0028  
                       ?_setup 0070                         _ANSELH 0189                         i1l2120 0F7C  
                       i1l2130 0FA5                         i1l2122 0F84                         i1l2140 0FC4  
                       i1l2132 0FB4                         i1l2124 0F8D                         i1l2150 0FF6  
                       i1l2142 0FCF                         i1l2134 0FBB                         i1l2126 0F8F  
                       i1l2118 0F78                         i1l2144 0FDF                         i1l2136 0FBD  
                       i1l2128 0F9E                         i1l2146 0FE5                         i1l2138 0FBE  
                       i1l2148 0FF0                         i1l1930 0DD7                         i1l1940 0D75  
                       i1l1932 0DE0                         i1l1950 0D7C                         i1l1942 0D78  
                       i1l1934 0DE4                         i1l1944 0D79                         i1l1936 0DE5  
                       i1l1960 0DCF                         i1l1952 0DC2                         i1l1946 0D7A  
                       i1l1970 0D97                         i1l1954 0DC3                         i1l1948 0D7B  
                       i1l1980 0DB8                         i1l1964 0D89                         i1l1956 0DC9  
                       i1l1982 0DBA                         i1l1974 0DAD                         i1l1966 0D92  
                       i1l1958 0DCD                         i1l1990 0DA5                         i1l1976 0DAE  
                       i1l1968 0D96                         i1l1978 0DB4                         i1l1986 0D9B  
                       i1l1988 0D9E                         u240_20 0D92                         u240_21 0D91  
                       u241_20 0DB4                         u241_21 0DB3                         u242_20 0DB8  
                       u242_21 0DB7                         u243_20 0DAC                         u243_21 0DAB  
                       u236_20 0DE0                         u236_21 0DDF                         u237_20 0DE4  
                       u237_21 0DE3                         u238_20 0DC9                         u270_20 0FCF  
                       u238_21 0DC8                         u270_21 0FCE                         u239_20 0DCD  
                       u271_20 0FDF                         u239_21 0DCC                         u271_21 0FDE  
                       u272_20 0FF0                         u272_21 0FEF                         u265_20 0F7C  
                       u265_21 0F7B                         u266_20 0F8D                         u266_21 0F8C  
                       u267_20 0F9E                         u267_21 0F9D                         u267_25 0F9A  
                       u268_20 0FB4                         u268_21 0FB3                         u268_25 0FB0  
                       u269_20 0FC4                         u269_21 0FC3                         _SSPADD 0093  
                       _SSPCON 0014                         _SSPBUF 0013          __end_of_Servo_1_Write 07FD  
        __end_of_Servo_2_Write 07D3               __end_of___xxtofl 07A9                  _I2C_Read_Mode 0DAD  
                       ___wmul 0E47        __end_of_I2C_Write_Slave 0DAD                      ??___fldiv 0050  
                    ??___awdiv 002A                      ??___flmul 0036                         _data_s 00B0  
                    ??___fltol 0066                     _Servo_Init 0DED               ___awdiv@quotient 002D  
          _HCSR04_Get_Distance 0539        I2C_Write_Slave@dato_i2c 0070                         saved_w 007E  
                 ___xxtofl@arg 002A                   ___xxtofl@exp 0029                   ___xxtofl@val 0020  
      __end_of__initialization 001D           ?_HCSR04_Get_Distance 0062              _I2C_Read_Mode$546 0074  
                   ___fltol@f1 0062                 ?_I2C_Read_Mode 0070                 __pcstackCOMMON 0070  
                __end_of_setup 0E27                 _OPTION_REGbits 0081                        ??_setup 0021  
                   __pbssBANK1 00B0          ??_HCSR04_Get_Distance 0066                     __pnvCOMMON 007D  
            __end_of__Umul8_16 0E97                     __pmaintext 0629                        ?___wmul 0020  
             ?_I2C_Write_Slave 0070                     __pintentry 0004                    ?_Servo_Init 0070  
                    ?___xxtofl 0020                        _SSPCON2 0091                        _SSPSTAT 0094  
              ??_I2C_Read_Mode 0072                 _I2C_Init_Slave 0E27                        ___fldiv 0366  
                      ___awdiv 0E97                        ___flmul 0021                        ___fltol 0F00  
               _I2C_Read_Slave 0D89                 _I2C_Error_Data 0D75                 _I2C_Error_Read 0DD7  
                      __ptext1 0E08                        __ptext2 0DED                        __ptext3 0E27  
                      __ptext4 0F00                        __ptext5 07A9                        __ptext6 07D3  
                      __ptext7 0E47                        __ptext8 0E97                        __ptext9 0D7E  
                      _cont_sr 0079                      _T1CONbits 0010                        _enviado 007B  
                   ??___xxtofl 0024           end_of_initialization 001D                  ??_HCSR04_Init 0020  
       __end_of_I2C_Init_Slave 0E47         __end_of_I2C_Read_Slave 0D9A         __end_of_I2C_Error_Data 0D7E  
       __end_of_I2C_Error_Read 0DED                      _PORTAbits 0005                      _PORTDbits 0008  
                ___xxtofl@sign 0028                      _TRISAbits 0085                      _TRISCbits 0087  
                    _TRISDbits 0088                    ___fldiv@grs 005C                    ___fldiv@rem 0055  
                  ___flmul@grs 003C                ?_I2C_Init_Slave 0070                ?_I2C_Read_Slave 0070  
          __end_of_HCSR04_Init 0D89                ?_I2C_Error_Data 0070                ?_I2C_Error_Read 0070  
               _I2C_Write_Mode 0DC2                 __end_of___wmul 0E6E            start_initialization 000F  
                  __end_of_isr 1000             _I2C_Error_Read$534 0074         __end_of_I2C_Write_Mode 0DD7  
                     ??___wmul 0024                      __Umul8_16 0E6E                   ??_Servo_Init 0020  
                    ___fldiv@a 0048                      ___fldiv@b 004C                      ___flmul@a 0032  
                    ___flmul@b 002E                    __pbssCOMMON 0079                      ___latbits 0002  
                __pcstackBANK0 0020                  __pcstackBANK1 00A0    __end_of_HCSR04_Get_Distance 0629  
           __end_of_Servo_Init 0E08                    _HCSR04_Init 0D7E   HCSR04_Get_Distance@timer_low 00AA  
                _Servo_1_Write 07D3                  _Servo_2_Write 07A9                ?_I2C_Write_Mode 0070  
                     ?___fldiv 0048                       ?___awdiv 0026                       ?___flmul 002E  
                     ?___fltol 0062                     ?__Umul8_16 0020               Servo_1_Write@ang 0031  
           _I2C_Write_Mode$544 0074               Servo_2_Write@ang 0031              interrupt_function 0004  
               ___wmul@product 0024                 ?_Servo_1_Write 0070                 ?_Servo_2_Write 0070  
                     _PIE1bits 008C                       _PIR1bits 000C          __end_of_I2C_Read_Mode 0DC2  
            ___wmul@multiplier 0020               ??_I2C_Init_Slave 0020               ??_I2C_Read_Slave 0070  
             ??_I2C_Error_Data 0070               ??_I2C_Error_Read 0072                    ??__Umul8_16 0022  
                     ___xxtofl 06EF                       __ptext10 0539                       __ptext11 06EF  
                     __ptext20 0DD7                       __ptext12 0021                       __ptext21 0D75  
                     __ptext13 0E6E                       __ptext14 0366                       __ptext15 0F78  
                     __ptext16 0D9A                       __ptext17 0DC2                       __ptext18 0D89  
                     __ptext19 0DAD              ??_I2C_Write_Slave 0070                ??_Servo_1_Write 002F  
              ??_Servo_2_Write 002F                       _recibido 007C                     _INTCONbits 000B  
HCSR04_Get_Distance@timer_high 00A8                       intlevel1 0000                   ?_HCSR04_Init 0070  
             ??_I2C_Write_Mode 0072                     _OSCCONbits 008F        I2C_Init_Slave@add_slave 0020  
    HCSR04_Get_Distance@dis_hc 00A0         __Umul8_16@multiplicand 0020           __Umul8_16@multiplier 0028  
                   _SSPCONbits 0014              __Umul8_16@product 0024  
